
Atmega128.elf:     file format elf32-avr

Sections:
Idx Name          Size      VMA       LMA       File off  Algn
  0 .data         0000003e  00800100  00003300  000033b4  2**0
                  CONTENTS, ALLOC, LOAD, DATA
  1 .text         00003300  00000000  00000000  000000b4  2**1
                  CONTENTS, ALLOC, LOAD, READONLY, CODE
  2 .bss          0000016c  0080013e  0080013e  000033f2  2**0
                  ALLOC
  3 .eeprom       00000013  00810000  00810000  000033f2  2**0
                  CONTENTS, ALLOC, LOAD, DATA
  4 .comment      00000030  00000000  00000000  00003405  2**0
                  CONTENTS, READONLY
  5 .note.gnu.avr.deviceinfo 0000003c  00000000  00000000  00003438  2**2
                  CONTENTS, READONLY
  6 .debug_aranges 000006c0  00000000  00000000  00003474  2**0
                  CONTENTS, READONLY, DEBUGGING
  7 .debug_info   0000655f  00000000  00000000  00003b34  2**0
                  CONTENTS, READONLY, DEBUGGING
  8 .debug_abbrev 00001c07  00000000  00000000  0000a093  2**0
                  CONTENTS, READONLY, DEBUGGING
  9 .debug_line   00004117  00000000  00000000  0000bc9a  2**0
                  CONTENTS, READONLY, DEBUGGING
 10 .debug_frame  000011fc  00000000  00000000  0000fdb4  2**2
                  CONTENTS, READONLY, DEBUGGING
 11 .debug_str    0000155e  00000000  00000000  00010fb0  2**0
                  CONTENTS, READONLY, DEBUGGING
 12 .debug_loc    000054c4  00000000  00000000  0001250e  2**0
                  CONTENTS, READONLY, DEBUGGING
 13 .debug_ranges 00000640  00000000  00000000  000179d2  2**0
                  CONTENTS, READONLY, DEBUGGING

Disassembly of section .text:

00000000 <__vectors>:
       0:	8b c0       	rjmp	.+278    	; 0x118 <__ctors_end>
       2:	00 00       	nop
       4:	30 c3       	rjmp	.+1632   	; 0x666 <__vector_1>
       6:	00 00       	nop
       8:	38 c3       	rjmp	.+1648   	; 0x67a <__vector_2>
       a:	00 00       	nop
       c:	40 c3       	rjmp	.+1664   	; 0x68e <__vector_3>
       e:	00 00       	nop
      10:	48 c3       	rjmp	.+1680   	; 0x6a2 <__vector_4>
      12:	00 00       	nop
      14:	50 c3       	rjmp	.+1696   	; 0x6b6 <__vector_5>
      16:	00 00       	nop
      18:	58 c3       	rjmp	.+1712   	; 0x6ca <__vector_6>
      1a:	00 00       	nop
      1c:	0c 94 b9 18 	jmp	0x3172	; 0x3172 <__vector_7>
      20:	5e c3       	rjmp	.+1724   	; 0x6de <__vector_8>
      22:	00 00       	nop
      24:	98 c0       	rjmp	.+304    	; 0x156 <__bad_interrupt>
      26:	00 00       	nop
      28:	f6 c6       	rjmp	.+3564   	; 0xe16 <__vector_10>
      2a:	00 00       	nop
      2c:	fe c6       	rjmp	.+3580   	; 0xe2a <__vector_11>
      2e:	00 00       	nop
      30:	06 c7       	rjmp	.+3596   	; 0xe3e <__vector_12>
      32:	00 00       	nop
      34:	0e c7       	rjmp	.+3612   	; 0xe52 <__vector_13>
      36:	00 00       	nop
      38:	16 c7       	rjmp	.+3628   	; 0xe66 <__vector_14>
      3a:	00 00       	nop
      3c:	1e c7       	rjmp	.+3644   	; 0xe7a <__vector_15>
      3e:	00 00       	nop
      40:	26 c7       	rjmp	.+3660   	; 0xe8e <__vector_16>
      42:	00 00       	nop
      44:	56 c3       	rjmp	.+1708   	; 0x6f2 <__vector_17>
      46:	00 00       	nop
      48:	0c 94 fd 08 	jmp	0x11fa	; 0x11fa <__vector_18>
      4c:	0c 94 35 09 	jmp	0x126a	; 0x126a <__vector_19>
      50:	82 c0       	rjmp	.+260    	; 0x156 <__bad_interrupt>
      52:	00 00       	nop
      54:	21 c1       	rjmp	.+578    	; 0x298 <__vector_21>
      56:	00 00       	nop
      58:	7e c0       	rjmp	.+252    	; 0x156 <__bad_interrupt>
      5a:	00 00       	nop
      5c:	7c c0       	rjmp	.+248    	; 0x156 <__bad_interrupt>
      5e:	00 00       	nop
      60:	20 c7       	rjmp	.+3648   	; 0xea2 <__vector_24>
      62:	00 00       	nop
      64:	28 c7       	rjmp	.+3664   	; 0xeb6 <__vector_25>
      66:	00 00       	nop
      68:	30 c7       	rjmp	.+3680   	; 0xeca <__vector_26>
      6a:	00 00       	nop
      6c:	38 c7       	rjmp	.+3696   	; 0xede <__vector_27>
      6e:	00 00       	nop
      70:	40 c7       	rjmp	.+3712   	; 0xef2 <__vector_28>
      72:	00 00       	nop
      74:	0c 94 68 18 	jmp	0x30d0	; 0x30d0 <__vector_29>
      78:	0c 94 cf 0a 	jmp	0x159e	; 0x159e <__vector_30>
      7c:	0c 94 0a 0b 	jmp	0x1614	; 0x1614 <__vector_31>
      80:	6a c0       	rjmp	.+212    	; 0x156 <__bad_interrupt>
      82:	00 00       	nop
      84:	0c 94 c4 08 	jmp	0x1188	; 0x1188 <__vector_33>
      88:	66 c0       	rjmp	.+204    	; 0x156 <__bad_interrupt>
      8a:	00 00       	nop
      8c:	08 02       	muls	r16, r24
      8e:	24 02       	muls	r18, r20
      90:	40 02       	muls	r20, r16
      92:	5c 02       	muls	r21, r28
      94:	78 02       	muls	r23, r24
      96:	93 02       	muls	r25, r19
      98:	ae 02       	muls	r26, r30
      9a:	c9 02       	muls	r28, r25
      9c:	ef 02       	muls	r30, r31
      9e:	f3 02       	muls	r31, r19
      a0:	f7 02       	muls	r31, r23
      a2:	fb 02       	muls	r31, r27
      a4:	ff 02       	muls	r31, r31
      a6:	03 03       	mulsu	r16, r19
      a8:	07 03       	mulsu	r16, r23
      aa:	0b 03       	fmul	r16, r19
      ac:	fa 04       	cpc	r15, r10
      ae:	fe 04       	cpc	r15, r14
      b0:	02 05       	cpc	r16, r2
      b2:	06 05       	cpc	r16, r6
      b4:	0a 05       	cpc	r16, r10
      b6:	11 05       	cpc	r17, r1
      b8:	18 05       	cpc	r17, r8
      ba:	1f 05       	cpc	r17, r15
      bc:	23 05       	cpc	r18, r3
      be:	2a 05       	cpc	r18, r10
      c0:	31 05       	cpc	r19, r1
      c2:	38 05       	cpc	r19, r8
      c4:	3c 05       	cpc	r19, r12
      c6:	43 05       	cpc	r20, r3
      c8:	4a 05       	cpc	r20, r10
      ca:	66 05       	cpc	r22, r6
      cc:	6a 05       	cpc	r22, r10
      ce:	6e 05       	cpc	r22, r14
      d0:	72 05       	cpc	r23, r2
      d2:	78 05       	cpc	r23, r8
      d4:	7c 05       	cpc	r23, r12
      d6:	80 05       	cpc	r24, r0
      d8:	84 05       	cpc	r24, r4
      da:	8d 05       	cpc	r24, r13
      dc:	91 05       	cpc	r25, r1
      de:	95 05       	cpc	r25, r5
      e0:	9e 05       	cpc	r25, r14
      e2:	f6 05       	cpc	r31, r6
      e4:	fc 05       	cpc	r31, r12
      e6:	02 06       	cpc	r0, r18
      e8:	08 06       	cpc	r0, r24
      ea:	0e 06       	cpc	r0, r30
      ec:	19 06       	cpc	r1, r25
      ee:	24 06       	cpc	r2, r20
      f0:	2f 06       	cpc	r2, r31
      f2:	35 06       	cpc	r3, r21
      f4:	40 06       	cpc	r4, r16
      f6:	4b 06       	cpc	r4, r27
      f8:	56 06       	cpc	r5, r22
      fa:	5c 06       	cpc	r5, r28
      fc:	67 06       	cpc	r6, r23
      fe:	72 06       	cpc	r7, r18
     100:	91 06       	cpc	r9, r17
     102:	95 06       	cpc	r9, r21
     104:	9b 06       	cpc	r9, r27
     106:	a1 06       	cpc	r10, r17
     108:	a7 06       	cpc	r10, r23
     10a:	ad 06       	cpc	r10, r29
     10c:	b3 06       	cpc	r11, r19
     10e:	b9 06       	cpc	r11, r25
     110:	bf 06       	cpc	r11, r31
     112:	c5 06       	cpc	r12, r21
     114:	cb 06       	cpc	r12, r27
     116:	d1 06       	cpc	r13, r17

00000118 <__ctors_end>:
     118:	11 24       	eor	r1, r1
     11a:	1f be       	out	0x3f, r1	; 63
     11c:	cf ef       	ldi	r28, 0xFF	; 255
     11e:	d0 e1       	ldi	r29, 0x10	; 16
     120:	de bf       	out	0x3e, r29	; 62
     122:	cd bf       	out	0x3d, r28	; 61

00000124 <__do_copy_data>:
     124:	11 e0       	ldi	r17, 0x01	; 1
     126:	a0 e0       	ldi	r26, 0x00	; 0
     128:	b1 e0       	ldi	r27, 0x01	; 1
     12a:	e0 e0       	ldi	r30, 0x00	; 0
     12c:	f3 e3       	ldi	r31, 0x33	; 51
     12e:	00 e0       	ldi	r16, 0x00	; 0
     130:	0b bf       	out	0x3b, r16	; 59
     132:	02 c0       	rjmp	.+4      	; 0x138 <__do_copy_data+0x14>
     134:	07 90       	elpm	r0, Z+
     136:	0d 92       	st	X+, r0
     138:	ae 33       	cpi	r26, 0x3E	; 62
     13a:	b1 07       	cpc	r27, r17
     13c:	d9 f7       	brne	.-10     	; 0x134 <__do_copy_data+0x10>

0000013e <__do_clear_bss>:
     13e:	22 e0       	ldi	r18, 0x02	; 2
     140:	ae e3       	ldi	r26, 0x3E	; 62
     142:	b1 e0       	ldi	r27, 0x01	; 1
     144:	01 c0       	rjmp	.+2      	; 0x148 <.do_clear_bss_start>

00000146 <.do_clear_bss_loop>:
     146:	1d 92       	st	X+, r1

00000148 <.do_clear_bss_start>:
     148:	aa 3a       	cpi	r26, 0xAA	; 170
     14a:	b2 07       	cpc	r27, r18
     14c:	e1 f7       	brne	.-8      	; 0x146 <.do_clear_bss_loop>
     14e:	0e 94 65 16 	call	0x2cca	; 0x2cca <main>
     152:	0c 94 7e 19 	jmp	0x32fc	; 0x32fc <_exit>

00000156 <__bad_interrupt>:
     156:	54 cf       	rjmp	.-344    	; 0x0 <__vectors>

00000158 <ANALOG_read>:
* Returns selected Channel ADC_VALUE
*/
{
	uint8_t ADSC_FLAG;
	ADSC_FLAG=(1<<ADSC);
	if( !(ADC_CONTROL & ADSC_FLAG) ){
     158:	36 9b       	sbis	0x06, 6	; 6
		//ADC_SELECT
		/***/
		ADC_CONTROL|=(1<<ADSC);
     15a:	36 9a       	sbi	0x06, 6	; 6
	}	
	return ADC_VALUE[selection];
     15c:	fc 01       	movw	r30, r24
     15e:	ee 0f       	add	r30, r30
     160:	ff 1f       	adc	r31, r31
     162:	e9 5a       	subi	r30, 0xA9	; 169
     164:	fe 4f       	sbci	r31, 0xFE	; 254
     166:	80 81       	ld	r24, Z
     168:	91 81       	ldd	r25, Z+1	; 0x01
}
     16a:	08 95       	ret

0000016c <ANALOGenable>:
ANALOG ANALOGenable( uint8_t Vreff, uint8_t Divfactor, int n_channel, ... )
/*
* Interrupt running mode setup
* setup, and list of channels to be probed
*/
{
     16c:	0f 93       	push	r16
     16e:	1f 93       	push	r17
     170:	cf 93       	push	r28
     172:	df 93       	push	r29
     174:	cd b7       	in	r28, 0x3d	; 61
     176:	de b7       	in	r29, 0x3e	; 62
     178:	9f 81       	ldd	r25, Y+7	; 0x07
     17a:	68 85       	ldd	r22, Y+8	; 0x08
     17c:	49 85       	ldd	r20, Y+9	; 0x09
     17e:	5a 85       	ldd	r21, Y+10	; 0x0a
	/***LOCAL VARIABLES***/
	uint8_t tSREG;
	va_list list;
	int i;
	//inic variables
	tSREG=SREG;
     180:	1f b7       	in	r17, 0x3f	; 63
	SREG&=~(1<<GLOBAL_INTERRUPT_ENABLE);
     182:	8f b7       	in	r24, 0x3f	; 63
     184:	8f 77       	andi	r24, 0x7F	; 127
     186:	8f bf       	out	0x3f, r24	; 63
	/***GLOBAL VARIABLES INICIALIZE***/
	ADC_N_CHANNEL=n_channel;
     188:	50 93 46 01 	sts	0x0146, r21	; 0x800146 <ADC_N_CHANNEL+0x1>
     18c:	40 93 45 01 	sts	0x0145, r20	; 0x800145 <ADC_N_CHANNEL>
	ADC_SELECTOR=0;
     190:	10 92 44 01 	sts	0x0144, r1	; 0x800144 <ADC_SELECTOR+0x1>
     194:	10 92 43 01 	sts	0x0143, r1	; 0x800143 <ADC_SELECTOR>
	adc_n_sample=0;
     198:	10 92 3e 01 	sts	0x013E, r1	; 0x80013e <__data_end>
	//import parametros
	//inic parameters
	//Direccionar apontadores para PROTOTIPOS
	analog.read=ANALOG_read;
		/******/
		ADC_SELECT&=~(3<<REFS0);
     19c:	87 b1       	in	r24, 0x07	; 7
     19e:	8f 73       	andi	r24, 0x3F	; 63
     1a0:	87 b9       	out	0x07, r24	; 7
		switch( Vreff ){
     1a2:	91 30       	cpi	r25, 0x01	; 1
     1a4:	19 f0       	breq	.+6      	; 0x1ac <ANALOGenable+0x40>
     1a6:	93 30       	cpi	r25, 0x03	; 3
     1a8:	21 f0       	breq	.+8      	; 0x1b2 <ANALOGenable+0x46>
     1aa:	08 c0       	rjmp	.+16     	; 0x1bc <ANALOGenable+0x50>
			case 0:
				analog.VREFF=0;
				break;
			case 1:
				ADC_SELECT|=(1<<REFS0);
     1ac:	3e 9a       	sbi	0x07, 6	; 7
				analog.VREFF=1;
     1ae:	01 e0       	ldi	r16, 0x01	; 1
				break;
     1b0:	06 c0       	rjmp	.+12     	; 0x1be <ANALOGenable+0x52>
			case 3:
				ADC_SELECT|=(3<<REFS0);
     1b2:	87 b1       	in	r24, 0x07	; 7
     1b4:	80 6c       	ori	r24, 0xC0	; 192
     1b6:	87 b9       	out	0x07, r24	; 7
				analog.VREFF=3;
     1b8:	03 e0       	ldi	r16, 0x03	; 3
				break;
     1ba:	01 c0       	rjmp	.+2      	; 0x1be <ANALOGenable+0x52>
	analog.read=ANALOG_read;
		/******/
		ADC_SELECT&=~(3<<REFS0);
		switch( Vreff ){
			case 0:
				analog.VREFF=0;
     1bc:	00 e0       	ldi	r16, 0x00	; 0
			default:
				analog.VREFF=0;
				break;
		}
		//
		ADC_SELECT&=~(1<<ADLAR);
     1be:	3d 98       	cbi	0x07, 5	; 7
		/******/
		va_start(list, n_channel);
		for(i=0;i<n_channel;i++){
     1c0:	14 16       	cp	r1, r20
     1c2:	15 06       	cpc	r1, r21
     1c4:	8c f4       	brge	.+34     	; 0x1e8 <ANALOGenable+0x7c>
     1c6:	de 01       	movw	r26, r28
     1c8:	1b 96       	adiw	r26, 0x0b	; 11
     1ca:	80 e0       	ldi	r24, 0x00	; 0
     1cc:	90 e0       	ldi	r25, 0x00	; 0
			ADC_CHANNEL_GAIN[i] = va_arg(list, int);
     1ce:	2d 91       	ld	r18, X+
     1d0:	3d 91       	ld	r19, X+
     1d2:	fc 01       	movw	r30, r24
     1d4:	ee 0f       	add	r30, r30
     1d6:	ff 1f       	adc	r31, r31
     1d8:	e9 5b       	subi	r30, 0xB9	; 185
     1da:	fe 4f       	sbci	r31, 0xFE	; 254
     1dc:	31 83       	std	Z+1, r19	; 0x01
     1de:	20 83       	st	Z, r18
		}
		//
		ADC_SELECT&=~(1<<ADLAR);
		/******/
		va_start(list, n_channel);
		for(i=0;i<n_channel;i++){
     1e0:	01 96       	adiw	r24, 0x01	; 1
     1e2:	48 17       	cp	r20, r24
     1e4:	59 07       	cpc	r21, r25
     1e6:	99 f7       	brne	.-26     	; 0x1ce <ANALOGenable+0x62>
			ADC_CHANNEL_GAIN[i] = va_arg(list, int);
		}
		va_end(list);
		ADC_SELECT&=~MUX_MASK;
     1e8:	87 b1       	in	r24, 0x07	; 7
     1ea:	80 7e       	andi	r24, 0xE0	; 224
     1ec:	87 b9       	out	0x07, r24	; 7
		ADC_SELECT|=(MUX_MASK & ADC_CHANNEL_GAIN[ADC_SELECTOR]);
     1ee:	e0 91 43 01 	lds	r30, 0x0143	; 0x800143 <ADC_SELECTOR>
     1f2:	f0 91 44 01 	lds	r31, 0x0144	; 0x800144 <ADC_SELECTOR+0x1>
     1f6:	ee 0f       	add	r30, r30
     1f8:	ff 1f       	adc	r31, r31
     1fa:	e9 5b       	subi	r30, 0xB9	; 185
     1fc:	fe 4f       	sbci	r31, 0xFE	; 254
     1fe:	80 81       	ld	r24, Z
     200:	91 81       	ldd	r25, Z+1	; 0x01
     202:	27 b1       	in	r18, 0x07	; 7
     204:	8f 71       	andi	r24, 0x1F	; 31
     206:	99 27       	eor	r25, r25
     208:	82 2b       	or	r24, r18
     20a:	87 b9       	out	0x07, r24	; 7
		/******/
		ADC_CONTROL|=(1<<ADEN);
     20c:	37 9a       	sbi	0x06, 7	; 6
		ADC_CONTROL|=(1<<ADSC);
     20e:	36 9a       	sbi	0x06, 6	; 6
		ADC_CONTROL&=~(1<<ADFR);
     210:	35 98       	cbi	0x06, 5	; 6
		ADC_CONTROL|=(1<<ADIE);
     212:	33 9a       	sbi	0x06, 3	; 6
		/******/
		ADC_CONTROL&=~(7<<ADPS0);
     214:	86 b1       	in	r24, 0x06	; 6
     216:	88 7f       	andi	r24, 0xF8	; 248
     218:	86 b9       	out	0x06, r24	; 6
		switch( Divfactor ){
     21a:	60 31       	cpi	r22, 0x10	; 16
     21c:	d1 f0       	breq	.+52     	; 0x252 <ANALOGenable+0xe6>
     21e:	38 f4       	brcc	.+14     	; 0x22e <ANALOGenable+0xc2>
     220:	64 30       	cpi	r22, 0x04	; 4
     222:	79 f0       	breq	.+30     	; 0x242 <ANALOGenable+0xd6>
     224:	68 30       	cpi	r22, 0x08	; 8
     226:	81 f0       	breq	.+32     	; 0x248 <ANALOGenable+0xdc>
     228:	62 30       	cpi	r22, 0x02	; 2
     22a:	29 f5       	brne	.+74     	; 0x276 <ANALOGenable+0x10a>
     22c:	07 c0       	rjmp	.+14     	; 0x23c <ANALOGenable+0xd0>
     22e:	60 34       	cpi	r22, 0x40	; 64
     230:	c1 f0       	breq	.+48     	; 0x262 <ANALOGenable+0xf6>
     232:	60 38       	cpi	r22, 0x80	; 128
     234:	d9 f0       	breq	.+54     	; 0x26c <ANALOGenable+0x100>
     236:	60 32       	cpi	r22, 0x20	; 32
     238:	f1 f4       	brne	.+60     	; 0x276 <ANALOGenable+0x10a>
     23a:	0e c0       	rjmp	.+28     	; 0x258 <ANALOGenable+0xec>
			case 2://1
				ADC_CONTROL|=(1<<ADPS0);
     23c:	30 9a       	sbi	0x06, 0	; 6
				analog.DIVISION_FACTOR=2;
     23e:	22 e0       	ldi	r18, 0x02	; 2
				break;
     240:	1e c0       	rjmp	.+60     	; 0x27e <ANALOGenable+0x112>
			case 4://2
				ADC_CONTROL|=(1<<ADPS1);
     242:	31 9a       	sbi	0x06, 1	; 6
				analog.DIVISION_FACTOR=4;
     244:	24 e0       	ldi	r18, 0x04	; 4
				break;
     246:	1b c0       	rjmp	.+54     	; 0x27e <ANALOGenable+0x112>
			case 8://3
				ADC_CONTROL|=(3<<ADPS0);
     248:	86 b1       	in	r24, 0x06	; 6
     24a:	83 60       	ori	r24, 0x03	; 3
     24c:	86 b9       	out	0x06, r24	; 6
				analog.DIVISION_FACTOR=8;
     24e:	28 e0       	ldi	r18, 0x08	; 8
				break;
     250:	16 c0       	rjmp	.+44     	; 0x27e <ANALOGenable+0x112>
			case 16://4
				ADC_CONTROL|=(1<<ADPS2);
     252:	32 9a       	sbi	0x06, 2	; 6
				analog.DIVISION_FACTOR=16;
     254:	20 e1       	ldi	r18, 0x10	; 16
				break;
     256:	13 c0       	rjmp	.+38     	; 0x27e <ANALOGenable+0x112>
			case 32://5
				ADC_CONTROL|=(5<<ADPS0);
     258:	86 b1       	in	r24, 0x06	; 6
     25a:	85 60       	ori	r24, 0x05	; 5
     25c:	86 b9       	out	0x06, r24	; 6
				analog.DIVISION_FACTOR=32;
     25e:	20 e2       	ldi	r18, 0x20	; 32
				break;
     260:	0e c0       	rjmp	.+28     	; 0x27e <ANALOGenable+0x112>
			case 64://6
				ADC_CONTROL|=(6<<ADPS0);
     262:	86 b1       	in	r24, 0x06	; 6
     264:	86 60       	ori	r24, 0x06	; 6
     266:	86 b9       	out	0x06, r24	; 6
				analog.DIVISION_FACTOR=64;
     268:	20 e4       	ldi	r18, 0x40	; 64
				break;
     26a:	09 c0       	rjmp	.+18     	; 0x27e <ANALOGenable+0x112>
			case 128://7
				ADC_CONTROL|=(7<<ADPS0);
     26c:	86 b1       	in	r24, 0x06	; 6
     26e:	87 60       	ori	r24, 0x07	; 7
     270:	86 b9       	out	0x06, r24	; 6
				analog.DIVISION_FACTOR=128;
     272:	20 e8       	ldi	r18, 0x80	; 128
				break;
     274:	04 c0       	rjmp	.+8      	; 0x27e <ANALOGenable+0x112>
			default:
				ADC_CONTROL|=(7<<ADPS0);
     276:	86 b1       	in	r24, 0x06	; 6
     278:	87 60       	ori	r24, 0x07	; 7
     27a:	86 b9       	out	0x06, r24	; 6
				analog.DIVISION_FACTOR=128;
     27c:	20 e8       	ldi	r18, 0x80	; 128
				break;
		}		
		
	SREG=tSREG;
     27e:	1f bf       	out	0x3f, r17	; 63
	SREG|=(1<<GLOBAL_INTERRUPT_ENABLE);
     280:	8f b7       	in	r24, 0x3f	; 63
     282:	80 68       	ori	r24, 0x80	; 128
     284:	8f bf       	out	0x3f, r24	; 63
	/******/
	return analog;
     286:	60 2f       	mov	r22, r16
     288:	72 2f       	mov	r23, r18
     28a:	8c ea       	ldi	r24, 0xAC	; 172
     28c:	90 e0       	ldi	r25, 0x00	; 0
}
     28e:	df 91       	pop	r29
     290:	cf 91       	pop	r28
     292:	1f 91       	pop	r17
     294:	0f 91       	pop	r16
     296:	08 95       	ret

00000298 <__vector_21>:
ISR(ANALOG_INTERRUPT)
/*************************************************************************
Function: ANALOG interrupt
Purpose:  Read Analog Input
**************************************************************************/
{
     298:	1f 92       	push	r1
     29a:	0f 92       	push	r0
     29c:	0f b6       	in	r0, 0x3f	; 63
     29e:	0f 92       	push	r0
     2a0:	11 24       	eor	r1, r1
     2a2:	0b b6       	in	r0, 0x3b	; 59
     2a4:	0f 92       	push	r0
     2a6:	2f 93       	push	r18
     2a8:	3f 93       	push	r19
     2aa:	8f 93       	push	r24
     2ac:	9f 93       	push	r25
     2ae:	ef 93       	push	r30
     2b0:	ff 93       	push	r31
	/******/
	adc_tmp=ADCL;
     2b2:	84 b1       	in	r24, 0x04	; 4
     2b4:	90 e0       	ldi	r25, 0x00	; 0
     2b6:	90 93 40 01 	sts	0x0140, r25	; 0x800140 <adc_tmp+0x1>
     2ba:	80 93 3f 01 	sts	0x013F, r24	; 0x80013f <adc_tmp>
	adc_tmp|=(ADCH<<8);
     2be:	25 b1       	in	r18, 0x05	; 5
     2c0:	80 91 3f 01 	lds	r24, 0x013F	; 0x80013f <adc_tmp>
     2c4:	90 91 40 01 	lds	r25, 0x0140	; 0x800140 <adc_tmp+0x1>
     2c8:	92 2b       	or	r25, r18
     2ca:	90 93 40 01 	sts	0x0140, r25	; 0x800140 <adc_tmp+0x1>
     2ce:	80 93 3f 01 	sts	0x013F, r24	; 0x80013f <adc_tmp>
	if(adc_n_sample < (1<<ADC_NUMBER_SAMPLE)){
     2d2:	80 91 3e 01 	lds	r24, 0x013E	; 0x80013e <__data_end>
     2d6:	84 30       	cpi	r24, 0x04	; 4
     2d8:	a0 f4       	brcc	.+40     	; 0x302 <__vector_21+0x6a>
		adc_n_sample++;
     2da:	80 91 3e 01 	lds	r24, 0x013E	; 0x80013e <__data_end>
     2de:	8f 5f       	subi	r24, 0xFF	; 255
     2e0:	80 93 3e 01 	sts	0x013E, r24	; 0x80013e <__data_end>
		adc_sample+=adc_tmp;
     2e4:	20 91 3f 01 	lds	r18, 0x013F	; 0x80013f <adc_tmp>
     2e8:	30 91 40 01 	lds	r19, 0x0140	; 0x800140 <adc_tmp+0x1>
     2ec:	80 91 41 01 	lds	r24, 0x0141	; 0x800141 <adc_sample>
     2f0:	90 91 42 01 	lds	r25, 0x0142	; 0x800142 <adc_sample+0x1>
     2f4:	82 0f       	add	r24, r18
     2f6:	93 1f       	adc	r25, r19
     2f8:	90 93 42 01 	sts	0x0142, r25	; 0x800142 <adc_sample+0x1>
     2fc:	80 93 41 01 	sts	0x0141, r24	; 0x800141 <adc_sample>
     300:	43 c0       	rjmp	.+134    	; 0x388 <__vector_21+0xf0>
	}else{
		ADC_VALUE[ADC_SELECTOR]=adc_sample>>ADC_NUMBER_SAMPLE;
     302:	e0 91 43 01 	lds	r30, 0x0143	; 0x800143 <ADC_SELECTOR>
     306:	f0 91 44 01 	lds	r31, 0x0144	; 0x800144 <ADC_SELECTOR+0x1>
     30a:	80 91 41 01 	lds	r24, 0x0141	; 0x800141 <adc_sample>
     30e:	90 91 42 01 	lds	r25, 0x0142	; 0x800142 <adc_sample+0x1>
     312:	95 95       	asr	r25
     314:	87 95       	ror	r24
     316:	95 95       	asr	r25
     318:	87 95       	ror	r24
     31a:	ee 0f       	add	r30, r30
     31c:	ff 1f       	adc	r31, r31
     31e:	e9 5a       	subi	r30, 0xA9	; 169
     320:	fe 4f       	sbci	r31, 0xFE	; 254
     322:	91 83       	std	Z+1, r25	; 0x01
     324:	80 83       	st	Z, r24
		adc_n_sample=adc_sample=0;
     326:	10 92 42 01 	sts	0x0142, r1	; 0x800142 <adc_sample+0x1>
     32a:	10 92 41 01 	sts	0x0141, r1	; 0x800141 <adc_sample>
     32e:	10 92 3e 01 	sts	0x013E, r1	; 0x80013e <__data_end>
		/******/
		if(ADC_SELECTOR < ADC_N_CHANNEL)
     332:	20 91 43 01 	lds	r18, 0x0143	; 0x800143 <ADC_SELECTOR>
     336:	30 91 44 01 	lds	r19, 0x0144	; 0x800144 <ADC_SELECTOR+0x1>
     33a:	80 91 45 01 	lds	r24, 0x0145	; 0x800145 <ADC_N_CHANNEL>
     33e:	90 91 46 01 	lds	r25, 0x0146	; 0x800146 <ADC_N_CHANNEL+0x1>
     342:	28 17       	cp	r18, r24
     344:	39 07       	cpc	r19, r25
     346:	54 f4       	brge	.+20     	; 0x35c <__vector_21+0xc4>
			ADC_SELECTOR++;
     348:	80 91 43 01 	lds	r24, 0x0143	; 0x800143 <ADC_SELECTOR>
     34c:	90 91 44 01 	lds	r25, 0x0144	; 0x800144 <ADC_SELECTOR+0x1>
     350:	01 96       	adiw	r24, 0x01	; 1
     352:	90 93 44 01 	sts	0x0144, r25	; 0x800144 <ADC_SELECTOR+0x1>
     356:	80 93 43 01 	sts	0x0143, r24	; 0x800143 <ADC_SELECTOR>
     35a:	04 c0       	rjmp	.+8      	; 0x364 <__vector_21+0xcc>
		else
			ADC_SELECTOR=0;
     35c:	10 92 44 01 	sts	0x0144, r1	; 0x800144 <ADC_SELECTOR+0x1>
     360:	10 92 43 01 	sts	0x0143, r1	; 0x800143 <ADC_SELECTOR>
		ADC_SELECT &= ~MUX_MASK;
     364:	87 b1       	in	r24, 0x07	; 7
     366:	80 7e       	andi	r24, 0xE0	; 224
     368:	87 b9       	out	0x07, r24	; 7
		ADC_SELECT |= (ADC_CHANNEL_GAIN[ADC_SELECTOR] & MUX_MASK);
     36a:	e0 91 43 01 	lds	r30, 0x0143	; 0x800143 <ADC_SELECTOR>
     36e:	f0 91 44 01 	lds	r31, 0x0144	; 0x800144 <ADC_SELECTOR+0x1>
     372:	ee 0f       	add	r30, r30
     374:	ff 1f       	adc	r31, r31
     376:	e9 5b       	subi	r30, 0xB9	; 185
     378:	fe 4f       	sbci	r31, 0xFE	; 254
     37a:	80 81       	ld	r24, Z
     37c:	91 81       	ldd	r25, Z+1	; 0x01
     37e:	27 b1       	in	r18, 0x07	; 7
     380:	8f 71       	andi	r24, 0x1F	; 31
     382:	99 27       	eor	r25, r25
     384:	82 2b       	or	r24, r18
     386:	87 b9       	out	0x07, r24	; 7
	}		
}
     388:	ff 91       	pop	r31
     38a:	ef 91       	pop	r30
     38c:	9f 91       	pop	r25
     38e:	8f 91       	pop	r24
     390:	3f 91       	pop	r19
     392:	2f 91       	pop	r18
     394:	0f 90       	pop	r0
     396:	0b be       	out	0x3b, r0	; 59
     398:	0f 90       	pop	r0
     39a:	0f be       	out	0x3f, r0	; 63
     39c:	0f 90       	pop	r0
     39e:	1f 90       	pop	r1
     3a0:	18 95       	reti

000003a2 <INTERRUPT_reset_status>:
	return interrupt;
}
	uint8_t INTERRUPT_reset_status(void)
	{
		uint8_t reset,ret=0;
		reset=(MCU_Control_Status_Register & MCU_Control_Status_Register_Mask);
     3a2:	84 b7       	in	r24, 0x34	; 52
		switch(reset){
     3a4:	8f 71       	andi	r24, 0x1F	; 31
     3a6:	84 30       	cpi	r24, 0x04	; 4
     3a8:	a9 f0       	breq	.+42     	; 0x3d4 <INTERRUPT_reset_status+0x32>
     3aa:	28 f4       	brcc	.+10     	; 0x3b6 <INTERRUPT_reset_status+0x14>
     3ac:	81 30       	cpi	r24, 0x01	; 1
     3ae:	41 f0       	breq	.+16     	; 0x3c0 <INTERRUPT_reset_status+0x1e>
     3b0:	82 30       	cpi	r24, 0x02	; 2
     3b2:	59 f0       	breq	.+22     	; 0x3ca <INTERRUPT_reset_status+0x28>
     3b4:	1e c0       	rjmp	.+60     	; 0x3f2 <INTERRUPT_reset_status+0x50>
     3b6:	88 30       	cpi	r24, 0x08	; 8
     3b8:	91 f0       	breq	.+36     	; 0x3de <INTERRUPT_reset_status+0x3c>
     3ba:	80 31       	cpi	r24, 0x10	; 16
     3bc:	a9 f0       	breq	.+42     	; 0x3e8 <INTERRUPT_reset_status+0x46>
     3be:	19 c0       	rjmp	.+50     	; 0x3f2 <INTERRUPT_reset_status+0x50>
			case 1: // Power-On Reset Flag
				ret=0;
				MCU_Control_Status_Register&=~(1<<PORF);
     3c0:	84 b7       	in	r24, 0x34	; 52
     3c2:	8e 7f       	andi	r24, 0xFE	; 254
     3c4:	84 bf       	out	0x34, r24	; 52
	{
		uint8_t reset,ret=0;
		reset=(MCU_Control_Status_Register & MCU_Control_Status_Register_Mask);
		switch(reset){
			case 1: // Power-On Reset Flag
				ret=0;
     3c6:	80 e0       	ldi	r24, 0x00	; 0
				MCU_Control_Status_Register&=~(1<<PORF);
				break;
     3c8:	08 95       	ret
			case 2: // External Reset Flag
				MCU_Control_Status_Register&=~(1<<EXTRF);
     3ca:	84 b7       	in	r24, 0x34	; 52
     3cc:	8d 7f       	andi	r24, 0xFD	; 253
     3ce:	84 bf       	out	0x34, r24	; 52
				ret=1;
     3d0:	81 e0       	ldi	r24, 0x01	; 1
				break;
     3d2:	08 95       	ret
			case 4: // Brown-out Reset Flag
				MCU_Control_Status_Register&=~(1<<BORF);
     3d4:	84 b7       	in	r24, 0x34	; 52
     3d6:	8b 7f       	andi	r24, 0xFB	; 251
     3d8:	84 bf       	out	0x34, r24	; 52
				ret=2;
     3da:	82 e0       	ldi	r24, 0x02	; 2
				break;
     3dc:	08 95       	ret
			case 8: // Watchdog Reset Flag
				MCU_Control_Status_Register&=~(1<<WDRF);
     3de:	84 b7       	in	r24, 0x34	; 52
     3e0:	87 7f       	andi	r24, 0xF7	; 247
     3e2:	84 bf       	out	0x34, r24	; 52
				ret=3;
     3e4:	83 e0       	ldi	r24, 0x03	; 3
				break;
     3e6:	08 95       	ret
			case 16: // JTAG Reset Flag
				MCU_Control_Status_Register&=~(1<<JTRF);
     3e8:	84 b7       	in	r24, 0x34	; 52
     3ea:	8f 7e       	andi	r24, 0xEF	; 239
     3ec:	84 bf       	out	0x34, r24	; 52
				ret=4;
     3ee:	84 e0       	ldi	r24, 0x04	; 4
				break;
     3f0:	08 95       	ret
			default: // clear all status
				MCU_Control_Status_Register&=~(MCU_Control_Status_Register_Mask);
     3f2:	84 b7       	in	r24, 0x34	; 52
     3f4:	80 7e       	andi	r24, 0xE0	; 224
     3f6:	84 bf       	out	0x34, r24	; 52
	interrupt.reset_status=INTERRUPT_reset_status;
	return interrupt;
}
	uint8_t INTERRUPT_reset_status(void)
	{
		uint8_t reset,ret=0;
     3f8:	80 e0       	ldi	r24, 0x00	; 0
			default: // clear all status
				MCU_Control_Status_Register&=~(MCU_Control_Status_Register_Mask);
				break;
		}
		return ret;
	}
     3fa:	08 95       	ret

000003fc <INTERRUPT_set>:
	void INTERRUPT_set(uint8_t channel, uint8_t sense)
	{
		switch( channel ){
     3fc:	90 e0       	ldi	r25, 0x00	; 0
     3fe:	88 30       	cpi	r24, 0x08	; 8
     400:	91 05       	cpc	r25, r1
     402:	08 f0       	brcs	.+2      	; 0x406 <__LOCK_REGION_LENGTH__+0x6>
     404:	e1 c0       	rjmp	.+450    	; 0x5c8 <__LOCK_REGION_LENGTH__+0x1c8>
     406:	fc 01       	movw	r30, r24
     408:	ea 5b       	subi	r30, 0xBA	; 186
     40a:	ff 4f       	sbci	r31, 0xFF	; 255
     40c:	0c 94 5c 19 	jmp	0x32b8	; 0x32b8 <__tablejump2__>
			case 0: 
				External_Interrupt_Mask_Register&=~(1<<INT0);
     410:	89 b7       	in	r24, 0x39	; 57
     412:	8e 7f       	andi	r24, 0xFE	; 254
     414:	89 bf       	out	0x39, r24	; 57
				External_Interrupt_Control_Register_A&=~((1<<ISC01) | (1<<ISC00));
     416:	ea e6       	ldi	r30, 0x6A	; 106
     418:	f0 e0       	ldi	r31, 0x00	; 0
     41a:	80 81       	ld	r24, Z
     41c:	8c 7f       	andi	r24, 0xFC	; 252
     41e:	80 83       	st	Z, r24
				switch(sense){
     420:	62 30       	cpi	r22, 0x02	; 2
     422:	19 f0       	breq	.+6      	; 0x42a <__LOCK_REGION_LENGTH__+0x2a>
     424:	63 30       	cpi	r22, 0x03	; 3
     426:	39 f0       	breq	.+14     	; 0x436 <__LOCK_REGION_LENGTH__+0x36>
     428:	0b c0       	rjmp	.+22     	; 0x440 <__LOCK_REGION_LENGTH__+0x40>
					case 0: // The low level of INTn generates an interrupt request.
					case 1: // The low level of INTn generates an interrupt request.
						break;
					case 2: // The falling edge of INTn generates asynchronously an interrupt request.
						External_Interrupt_Control_Register_A|=(1<<ISC01);
     42a:	ea e6       	ldi	r30, 0x6A	; 106
     42c:	f0 e0       	ldi	r31, 0x00	; 0
     42e:	80 81       	ld	r24, Z
     430:	82 60       	ori	r24, 0x02	; 2
     432:	80 83       	st	Z, r24
						break;
     434:	05 c0       	rjmp	.+10     	; 0x440 <__LOCK_REGION_LENGTH__+0x40>
					case 3: // The rising edge of INTn generates asynchronously an interrupt request.
						External_Interrupt_Control_Register_A|=((1<<ISC01) | (1<<ISC00));
     436:	ea e6       	ldi	r30, 0x6A	; 106
     438:	f0 e0       	ldi	r31, 0x00	; 0
     43a:	80 81       	ld	r24, Z
     43c:	83 60       	ori	r24, 0x03	; 3
     43e:	80 83       	st	Z, r24
						break;
					default: // The low level of INTn generates an interrupt request.
						break;
				}
				External_Interrupt_Mask_Register|=(1<<INT0);
     440:	89 b7       	in	r24, 0x39	; 57
     442:	81 60       	ori	r24, 0x01	; 1
     444:	89 bf       	out	0x39, r24	; 57
				break;
     446:	08 95       	ret
			case 1:
				External_Interrupt_Mask_Register&=~(1<<INT1);
     448:	89 b7       	in	r24, 0x39	; 57
     44a:	8d 7f       	andi	r24, 0xFD	; 253
     44c:	89 bf       	out	0x39, r24	; 57
				External_Interrupt_Control_Register_A&=~((1<<ISC11) | (1<<ISC10));
     44e:	ea e6       	ldi	r30, 0x6A	; 106
     450:	f0 e0       	ldi	r31, 0x00	; 0
     452:	80 81       	ld	r24, Z
     454:	83 7f       	andi	r24, 0xF3	; 243
     456:	80 83       	st	Z, r24
				switch(sense){
     458:	62 30       	cpi	r22, 0x02	; 2
     45a:	19 f0       	breq	.+6      	; 0x462 <__LOCK_REGION_LENGTH__+0x62>
     45c:	63 30       	cpi	r22, 0x03	; 3
     45e:	39 f0       	breq	.+14     	; 0x46e <__LOCK_REGION_LENGTH__+0x6e>
     460:	0b c0       	rjmp	.+22     	; 0x478 <__LOCK_REGION_LENGTH__+0x78>
					case 0: // The low level of INTn generates an interrupt request.
					case 1: // The low level of INTn generates an interrupt request.
						break;
					case 2: // The falling edge of INTn generates asynchronously an interrupt request.
						External_Interrupt_Control_Register_A|=(1<<ISC11);
     462:	ea e6       	ldi	r30, 0x6A	; 106
     464:	f0 e0       	ldi	r31, 0x00	; 0
     466:	80 81       	ld	r24, Z
     468:	88 60       	ori	r24, 0x08	; 8
     46a:	80 83       	st	Z, r24
						break;
     46c:	05 c0       	rjmp	.+10     	; 0x478 <__LOCK_REGION_LENGTH__+0x78>
					case 3: // The rising edge of INTn generates asynchronously an interrupt request.
						External_Interrupt_Control_Register_A|=((1<<ISC11) | (1<<ISC10));
     46e:	ea e6       	ldi	r30, 0x6A	; 106
     470:	f0 e0       	ldi	r31, 0x00	; 0
     472:	80 81       	ld	r24, Z
     474:	8c 60       	ori	r24, 0x0C	; 12
     476:	80 83       	st	Z, r24
						break;
					default: // The low level of INTn generates an interrupt request.
						break;
				}
				External_Interrupt_Mask_Register|=(1<<INT1);
     478:	89 b7       	in	r24, 0x39	; 57
     47a:	82 60       	ori	r24, 0x02	; 2
     47c:	89 bf       	out	0x39, r24	; 57
				break;
     47e:	08 95       	ret
			case 2:
				External_Interrupt_Mask_Register&=~(1<<INT2);
     480:	89 b7       	in	r24, 0x39	; 57
     482:	8b 7f       	andi	r24, 0xFB	; 251
     484:	89 bf       	out	0x39, r24	; 57
				External_Interrupt_Control_Register_A&=~((1<<ISC21) | (1<<ISC20));
     486:	ea e6       	ldi	r30, 0x6A	; 106
     488:	f0 e0       	ldi	r31, 0x00	; 0
     48a:	80 81       	ld	r24, Z
     48c:	8f 7c       	andi	r24, 0xCF	; 207
     48e:	80 83       	st	Z, r24
				switch(sense){
     490:	62 30       	cpi	r22, 0x02	; 2
     492:	19 f0       	breq	.+6      	; 0x49a <__LOCK_REGION_LENGTH__+0x9a>
     494:	63 30       	cpi	r22, 0x03	; 3
     496:	39 f0       	breq	.+14     	; 0x4a6 <__LOCK_REGION_LENGTH__+0xa6>
     498:	0b c0       	rjmp	.+22     	; 0x4b0 <__LOCK_REGION_LENGTH__+0xb0>
					case 0: // The low level of INTn generates an interrupt request.
					case 1: // The low level of INTn generates an interrupt request.
						break;
					case 2: // The falling edge of INTn generates asynchronously an interrupt request.
						External_Interrupt_Control_Register_A|=(1<<ISC21);
     49a:	ea e6       	ldi	r30, 0x6A	; 106
     49c:	f0 e0       	ldi	r31, 0x00	; 0
     49e:	80 81       	ld	r24, Z
     4a0:	80 62       	ori	r24, 0x20	; 32
     4a2:	80 83       	st	Z, r24
						break;
     4a4:	05 c0       	rjmp	.+10     	; 0x4b0 <__LOCK_REGION_LENGTH__+0xb0>
					case 3: // The rising edge of INTn generates asynchronously an interrupt request.
						External_Interrupt_Control_Register_A|=((1<<ISC21) | (1<<ISC20));
     4a6:	ea e6       	ldi	r30, 0x6A	; 106
     4a8:	f0 e0       	ldi	r31, 0x00	; 0
     4aa:	80 81       	ld	r24, Z
     4ac:	80 63       	ori	r24, 0x30	; 48
     4ae:	80 83       	st	Z, r24
						break;
					default: // The low level of INTn generates an interrupt request.
						break;
				}
				External_Interrupt_Mask_Register|=(1<<INT2);
     4b0:	89 b7       	in	r24, 0x39	; 57
     4b2:	84 60       	ori	r24, 0x04	; 4
     4b4:	89 bf       	out	0x39, r24	; 57
				break;
     4b6:	08 95       	ret
			case 3:
				External_Interrupt_Mask_Register&=~(1<<INT3);
     4b8:	89 b7       	in	r24, 0x39	; 57
     4ba:	87 7f       	andi	r24, 0xF7	; 247
     4bc:	89 bf       	out	0x39, r24	; 57
				External_Interrupt_Control_Register_A&=~((1<<ISC31) | (1<<ISC30));
     4be:	ea e6       	ldi	r30, 0x6A	; 106
     4c0:	f0 e0       	ldi	r31, 0x00	; 0
     4c2:	80 81       	ld	r24, Z
     4c4:	8f 73       	andi	r24, 0x3F	; 63
     4c6:	80 83       	st	Z, r24
				switch(sense){
     4c8:	62 30       	cpi	r22, 0x02	; 2
     4ca:	19 f0       	breq	.+6      	; 0x4d2 <__LOCK_REGION_LENGTH__+0xd2>
     4cc:	63 30       	cpi	r22, 0x03	; 3
     4ce:	39 f0       	breq	.+14     	; 0x4de <__LOCK_REGION_LENGTH__+0xde>
     4d0:	0b c0       	rjmp	.+22     	; 0x4e8 <__LOCK_REGION_LENGTH__+0xe8>
					case 0: // The low level of INTn generates an interrupt request.
					case 1: // The low level of INTn generates an interrupt request.
						break;
					case 2: // The falling edge of INTn generates asynchronously an interrupt request.
						External_Interrupt_Control_Register_A|=(1<<ISC31);
     4d2:	ea e6       	ldi	r30, 0x6A	; 106
     4d4:	f0 e0       	ldi	r31, 0x00	; 0
     4d6:	80 81       	ld	r24, Z
     4d8:	80 68       	ori	r24, 0x80	; 128
     4da:	80 83       	st	Z, r24
						break;
     4dc:	05 c0       	rjmp	.+10     	; 0x4e8 <__LOCK_REGION_LENGTH__+0xe8>
					case 3: // The rising edge of INTn generates asynchronously an interrupt request.
						External_Interrupt_Control_Register_A|=((1<<ISC31) | (1<<ISC30));
     4de:	ea e6       	ldi	r30, 0x6A	; 106
     4e0:	f0 e0       	ldi	r31, 0x00	; 0
     4e2:	80 81       	ld	r24, Z
     4e4:	80 6c       	ori	r24, 0xC0	; 192
     4e6:	80 83       	st	Z, r24
						break;
					default: // The low level of INTn generates an interrupt request.
						break;
				}
				External_Interrupt_Mask_Register|=(1<<INT3);
     4e8:	89 b7       	in	r24, 0x39	; 57
     4ea:	88 60       	ori	r24, 0x08	; 8
     4ec:	89 bf       	out	0x39, r24	; 57
				break;
     4ee:	08 95       	ret
			case 4:
				External_Interrupt_Mask_Register&=~(1<<INT4);
     4f0:	89 b7       	in	r24, 0x39	; 57
     4f2:	8f 7e       	andi	r24, 0xEF	; 239
     4f4:	89 bf       	out	0x39, r24	; 57
				External_Interrupt_Control_Register_B&=~((1<<ISC41) | (1<<ISC40));
     4f6:	8a b7       	in	r24, 0x3a	; 58
     4f8:	8c 7f       	andi	r24, 0xFC	; 252
     4fa:	8a bf       	out	0x3a, r24	; 58
				switch(sense){
     4fc:	62 30       	cpi	r22, 0x02	; 2
     4fe:	41 f0       	breq	.+16     	; 0x510 <__LOCK_REGION_LENGTH__+0x110>
     500:	63 30       	cpi	r22, 0x03	; 3
     502:	51 f0       	breq	.+20     	; 0x518 <__LOCK_REGION_LENGTH__+0x118>
     504:	61 30       	cpi	r22, 0x01	; 1
     506:	59 f4       	brne	.+22     	; 0x51e <__LOCK_REGION_LENGTH__+0x11e>
					case 0: // The low level of INTn generates an interrupt request.
						break;
					case 1: // Any logical change on INTn generates an interrupt request
						External_Interrupt_Control_Register_B|=(1<<ISC40);
     508:	8a b7       	in	r24, 0x3a	; 58
     50a:	81 60       	ori	r24, 0x01	; 1
     50c:	8a bf       	out	0x3a, r24	; 58
						break;
     50e:	07 c0       	rjmp	.+14     	; 0x51e <__LOCK_REGION_LENGTH__+0x11e>
					case 2: // The falling edge between two samples of INTn generates an interrupt request.
						External_Interrupt_Control_Register_B|=(1<<ISC41);
     510:	8a b7       	in	r24, 0x3a	; 58
     512:	82 60       	ori	r24, 0x02	; 2
     514:	8a bf       	out	0x3a, r24	; 58
						break;
     516:	03 c0       	rjmp	.+6      	; 0x51e <__LOCK_REGION_LENGTH__+0x11e>
					case 3: // The rising edge between two samples of INTn generates an interrupt request.
						External_Interrupt_Control_Register_B|=((1<<ISC41) | (1<<ISC40));
     518:	8a b7       	in	r24, 0x3a	; 58
     51a:	83 60       	ori	r24, 0x03	; 3
     51c:	8a bf       	out	0x3a, r24	; 58
						break;
					default: // The low level of INTn generates an interrupt request.
						break;
				}
				External_Interrupt_Mask_Register|=(1<<INT4);
     51e:	89 b7       	in	r24, 0x39	; 57
     520:	80 61       	ori	r24, 0x10	; 16
     522:	89 bf       	out	0x39, r24	; 57
				break;
     524:	08 95       	ret
			case 5:
				External_Interrupt_Mask_Register&=~(1<<INT5);
     526:	89 b7       	in	r24, 0x39	; 57
     528:	8f 7d       	andi	r24, 0xDF	; 223
     52a:	89 bf       	out	0x39, r24	; 57
				External_Interrupt_Control_Register_B&=~((1<<ISC51) | (1<<ISC50));
     52c:	8a b7       	in	r24, 0x3a	; 58
     52e:	83 7f       	andi	r24, 0xF3	; 243
     530:	8a bf       	out	0x3a, r24	; 58
				switch(sense){
     532:	62 30       	cpi	r22, 0x02	; 2
     534:	41 f0       	breq	.+16     	; 0x546 <__LOCK_REGION_LENGTH__+0x146>
     536:	63 30       	cpi	r22, 0x03	; 3
     538:	51 f0       	breq	.+20     	; 0x54e <__LOCK_REGION_LENGTH__+0x14e>
     53a:	61 30       	cpi	r22, 0x01	; 1
     53c:	59 f4       	brne	.+22     	; 0x554 <__LOCK_REGION_LENGTH__+0x154>
					case 0: // The low level of INTn generates an interrupt request.
						break;
					case 1: // Any logical change on INTn generates an interrupt request
						External_Interrupt_Control_Register_B|=(1<<ISC50);
     53e:	8a b7       	in	r24, 0x3a	; 58
     540:	84 60       	ori	r24, 0x04	; 4
     542:	8a bf       	out	0x3a, r24	; 58
						break;
     544:	07 c0       	rjmp	.+14     	; 0x554 <__LOCK_REGION_LENGTH__+0x154>
					case 2: // The falling edge between two samples of INTn generates an interrupt request.
						External_Interrupt_Control_Register_B|=(1<<ISC51);
     546:	8a b7       	in	r24, 0x3a	; 58
     548:	88 60       	ori	r24, 0x08	; 8
     54a:	8a bf       	out	0x3a, r24	; 58
						break;
     54c:	03 c0       	rjmp	.+6      	; 0x554 <__LOCK_REGION_LENGTH__+0x154>
					case 3: // The rising edge between two samples of INTn generates an interrupt request.
						External_Interrupt_Control_Register_B|=((1<<ISC51) | (1<<ISC50));
     54e:	8a b7       	in	r24, 0x3a	; 58
     550:	8c 60       	ori	r24, 0x0C	; 12
     552:	8a bf       	out	0x3a, r24	; 58
						break;
					default: // The low level of INTn generates an interrupt request.
						break;
				}
				External_Interrupt_Mask_Register|=(1<<INT5);
     554:	89 b7       	in	r24, 0x39	; 57
     556:	80 62       	ori	r24, 0x20	; 32
     558:	89 bf       	out	0x39, r24	; 57
				break;
     55a:	08 95       	ret
			case 6:
				External_Interrupt_Mask_Register&=~(1<<INT6);
     55c:	89 b7       	in	r24, 0x39	; 57
     55e:	8f 7b       	andi	r24, 0xBF	; 191
     560:	89 bf       	out	0x39, r24	; 57
				External_Interrupt_Control_Register_B&=~((1<<ISC61) | (1<<ISC60));
     562:	8a b7       	in	r24, 0x3a	; 58
     564:	8f 7c       	andi	r24, 0xCF	; 207
     566:	8a bf       	out	0x3a, r24	; 58
				switch(sense){
     568:	62 30       	cpi	r22, 0x02	; 2
     56a:	41 f0       	breq	.+16     	; 0x57c <__LOCK_REGION_LENGTH__+0x17c>
     56c:	63 30       	cpi	r22, 0x03	; 3
     56e:	51 f0       	breq	.+20     	; 0x584 <__LOCK_REGION_LENGTH__+0x184>
     570:	61 30       	cpi	r22, 0x01	; 1
     572:	59 f4       	brne	.+22     	; 0x58a <__LOCK_REGION_LENGTH__+0x18a>
					case 0: // The low level of INTn generates an interrupt request.
						break;
					case 1: // Any logical change on INTn generates an interrupt request
						External_Interrupt_Control_Register_B|=(1<<ISC60);
     574:	8a b7       	in	r24, 0x3a	; 58
     576:	80 61       	ori	r24, 0x10	; 16
     578:	8a bf       	out	0x3a, r24	; 58
						break;
     57a:	07 c0       	rjmp	.+14     	; 0x58a <__LOCK_REGION_LENGTH__+0x18a>
					case 2: // The falling edge between two samples of INTn generates an interrupt request.
						External_Interrupt_Control_Register_B|=(1<<ISC61);
     57c:	8a b7       	in	r24, 0x3a	; 58
     57e:	80 62       	ori	r24, 0x20	; 32
     580:	8a bf       	out	0x3a, r24	; 58
						break;
     582:	03 c0       	rjmp	.+6      	; 0x58a <__LOCK_REGION_LENGTH__+0x18a>
					case 3: // The rising edge between two samples of INTn generates an interrupt request.
						External_Interrupt_Control_Register_B|=((1<<ISC61) | (1<<ISC60));
     584:	8a b7       	in	r24, 0x3a	; 58
     586:	80 63       	ori	r24, 0x30	; 48
     588:	8a bf       	out	0x3a, r24	; 58
						break;
					default: // The low level of INTn generates an interrupt request.
						break;
				}
				External_Interrupt_Mask_Register|=(1<<INT6);
     58a:	89 b7       	in	r24, 0x39	; 57
     58c:	80 64       	ori	r24, 0x40	; 64
     58e:	89 bf       	out	0x39, r24	; 57
				break;
     590:	08 95       	ret
			case 7:
				External_Interrupt_Mask_Register&=~(1<<INT7);
     592:	89 b7       	in	r24, 0x39	; 57
     594:	8f 77       	andi	r24, 0x7F	; 127
     596:	89 bf       	out	0x39, r24	; 57
				External_Interrupt_Control_Register_B&=~((1<<ISC71) | (1<<ISC70));
     598:	8a b7       	in	r24, 0x3a	; 58
     59a:	8f 73       	andi	r24, 0x3F	; 63
     59c:	8a bf       	out	0x3a, r24	; 58
				switch(sense){
     59e:	62 30       	cpi	r22, 0x02	; 2
     5a0:	41 f0       	breq	.+16     	; 0x5b2 <__LOCK_REGION_LENGTH__+0x1b2>
     5a2:	63 30       	cpi	r22, 0x03	; 3
     5a4:	51 f0       	breq	.+20     	; 0x5ba <__LOCK_REGION_LENGTH__+0x1ba>
     5a6:	61 30       	cpi	r22, 0x01	; 1
     5a8:	59 f4       	brne	.+22     	; 0x5c0 <__LOCK_REGION_LENGTH__+0x1c0>
					case 0: // The low level of INTn generates an interrupt request.
						break;
					case 1: // Any logical change on INTn generates an interrupt request
						External_Interrupt_Control_Register_B|=(1<<ISC70);
     5aa:	8a b7       	in	r24, 0x3a	; 58
     5ac:	80 64       	ori	r24, 0x40	; 64
     5ae:	8a bf       	out	0x3a, r24	; 58
						break;
     5b0:	07 c0       	rjmp	.+14     	; 0x5c0 <__LOCK_REGION_LENGTH__+0x1c0>
					case 2: // The falling edge between two samples of INTn generates an interrupt request.
						External_Interrupt_Control_Register_B|=(1<<ISC71);
     5b2:	8a b7       	in	r24, 0x3a	; 58
     5b4:	80 68       	ori	r24, 0x80	; 128
     5b6:	8a bf       	out	0x3a, r24	; 58
						break;
     5b8:	03 c0       	rjmp	.+6      	; 0x5c0 <__LOCK_REGION_LENGTH__+0x1c0>
					case 3: // The rising edge between two samples of INTn generates an interrupt request.
						External_Interrupt_Control_Register_B|=((1<<ISC71) | (1<<ISC70));
     5ba:	8a b7       	in	r24, 0x3a	; 58
     5bc:	80 6c       	ori	r24, 0xC0	; 192
     5be:	8a bf       	out	0x3a, r24	; 58
						break;
					default: // The low level of INTn generates an interrupt request.
						break;
				}
				External_Interrupt_Mask_Register|=(1<<INT7);
     5c0:	89 b7       	in	r24, 0x39	; 57
     5c2:	80 68       	ori	r24, 0x80	; 128
     5c4:	89 bf       	out	0x39, r24	; 57
				break;
     5c6:	08 95       	ret
			default:
				External_Interrupt_Mask_Register=0X00;
     5c8:	19 be       	out	0x39, r1	; 57
     5ca:	08 95       	ret

000005cc <INTERRUPT_off>:
				break;
		}
	}
	void INTERRUPT_off(uint8_t channel)
	{
		switch( channel ){
     5cc:	90 e0       	ldi	r25, 0x00	; 0
     5ce:	88 30       	cpi	r24, 0x08	; 8
     5d0:	91 05       	cpc	r25, r1
     5d2:	28 f5       	brcc	.+74     	; 0x61e <INTERRUPT_off+0x52>
     5d4:	fc 01       	movw	r30, r24
     5d6:	e2 5b       	subi	r30, 0xB2	; 178
     5d8:	ff 4f       	sbci	r31, 0xFF	; 255
     5da:	0c 94 5c 19 	jmp	0x32b8	; 0x32b8 <__tablejump2__>
			case 0: // desable
				External_Interrupt_Mask_Register&=~(1<<INT0);
     5de:	89 b7       	in	r24, 0x39	; 57
     5e0:	8e 7f       	andi	r24, 0xFE	; 254
     5e2:	89 bf       	out	0x39, r24	; 57
				break;
     5e4:	08 95       	ret
			case 1: // desable
				External_Interrupt_Mask_Register&=~(1<<INT1);
     5e6:	89 b7       	in	r24, 0x39	; 57
     5e8:	8d 7f       	andi	r24, 0xFD	; 253
     5ea:	89 bf       	out	0x39, r24	; 57
				break;
     5ec:	08 95       	ret
			case 2: // desable
				External_Interrupt_Mask_Register&=~(1<<INT2);
     5ee:	89 b7       	in	r24, 0x39	; 57
     5f0:	8b 7f       	andi	r24, 0xFB	; 251
     5f2:	89 bf       	out	0x39, r24	; 57
				break;
     5f4:	08 95       	ret
			case 3: // desable
				External_Interrupt_Mask_Register&=~(1<<INT3);
     5f6:	89 b7       	in	r24, 0x39	; 57
     5f8:	87 7f       	andi	r24, 0xF7	; 247
     5fa:	89 bf       	out	0x39, r24	; 57
				break;
     5fc:	08 95       	ret
			case 4: // desable
				External_Interrupt_Mask_Register&=~(1<<INT4);
     5fe:	89 b7       	in	r24, 0x39	; 57
     600:	8f 7e       	andi	r24, 0xEF	; 239
     602:	89 bf       	out	0x39, r24	; 57
				break;
     604:	08 95       	ret
			case 5: // desable
				External_Interrupt_Mask_Register&=~(1<<INT5);
     606:	89 b7       	in	r24, 0x39	; 57
     608:	8f 7d       	andi	r24, 0xDF	; 223
     60a:	89 bf       	out	0x39, r24	; 57
				break;
     60c:	08 95       	ret
			case 6: // desable
				External_Interrupt_Mask_Register&=~(1<<INT6);
     60e:	89 b7       	in	r24, 0x39	; 57
     610:	8f 7b       	andi	r24, 0xBF	; 191
     612:	89 bf       	out	0x39, r24	; 57
				break;
     614:	08 95       	ret
			case 7: // desable
				External_Interrupt_Mask_Register&=~(1<<INT7);
     616:	89 b7       	in	r24, 0x39	; 57
     618:	8f 77       	andi	r24, 0x7F	; 127
     61a:	89 bf       	out	0x39, r24	; 57
				break;
     61c:	08 95       	ret
			default: // all disable
				External_Interrupt_Mask_Register=0X00;
     61e:	19 be       	out	0x39, r1	; 57
     620:	08 95       	ret

00000622 <INTERRUPTenable>:
*/
INTERRUPT INTERRUPTenable(void)
/*
* setup blank
*/
{
     622:	cf 93       	push	r28
     624:	df 93       	push	r29
     626:	00 d0       	rcall	.+0      	; 0x628 <INTERRUPTenable+0x6>
     628:	00 d0       	rcall	.+0      	; 0x62a <INTERRUPTenable+0x8>
     62a:	00 d0       	rcall	.+0      	; 0x62c <INTERRUPTenable+0xa>
     62c:	cd b7       	in	r28, 0x3d	; 61
     62e:	de b7       	in	r29, 0x3e	; 62
	INTERRUPT interrupt;
	External_Interrupt_Mask_Register=0X00;
     630:	19 be       	out	0x39, r1	; 57
	/******/
	interrupt.set=INTERRUPT_set;
	interrupt.off=INTERRUPT_off;
	interrupt.reset_status=INTERRUPT_reset_status;
	return interrupt;
     632:	2e ef       	ldi	r18, 0xFE	; 254
     634:	31 e0       	ldi	r19, 0x01	; 1
     636:	3a 83       	std	Y+2, r19	; 0x02
     638:	29 83       	std	Y+1, r18	; 0x01
     63a:	46 ee       	ldi	r20, 0xE6	; 230
     63c:	52 e0       	ldi	r21, 0x02	; 2
     63e:	5c 83       	std	Y+4, r21	; 0x04
     640:	4b 83       	std	Y+3, r20	; 0x03
     642:	61 ed       	ldi	r22, 0xD1	; 209
     644:	71 e0       	ldi	r23, 0x01	; 1
     646:	7e 83       	std	Y+6, r23	; 0x06
     648:	6d 83       	std	Y+5, r22	; 0x05
     64a:	3a 81       	ldd	r19, Y+2	; 0x02
     64c:	5c 81       	ldd	r21, Y+4	; 0x04
     64e:	7e 81       	ldd	r23, Y+6	; 0x06
}
     650:	80 e0       	ldi	r24, 0x00	; 0
     652:	90 e0       	ldi	r25, 0x00	; 0
     654:	26 96       	adiw	r28, 0x06	; 6
     656:	0f b6       	in	r0, 0x3f	; 63
     658:	f8 94       	cli
     65a:	de bf       	out	0x3e, r29	; 62
     65c:	0f be       	out	0x3f, r0	; 63
     65e:	cd bf       	out	0x3d, r28	; 61
     660:	df 91       	pop	r29
     662:	cf 91       	pop	r28
     664:	08 95       	ret

00000666 <__vector_1>:

/*
** interrupt
*/
// cross out the ones being used and redefine in main
ISR(INT0_vect){ }
     666:	1f 92       	push	r1
     668:	0f 92       	push	r0
     66a:	0f b6       	in	r0, 0x3f	; 63
     66c:	0f 92       	push	r0
     66e:	11 24       	eor	r1, r1
     670:	0f 90       	pop	r0
     672:	0f be       	out	0x3f, r0	; 63
     674:	0f 90       	pop	r0
     676:	1f 90       	pop	r1
     678:	18 95       	reti

0000067a <__vector_2>:
ISR(INT1_vect){ }
     67a:	1f 92       	push	r1
     67c:	0f 92       	push	r0
     67e:	0f b6       	in	r0, 0x3f	; 63
     680:	0f 92       	push	r0
     682:	11 24       	eor	r1, r1
     684:	0f 90       	pop	r0
     686:	0f be       	out	0x3f, r0	; 63
     688:	0f 90       	pop	r0
     68a:	1f 90       	pop	r1
     68c:	18 95       	reti

0000068e <__vector_3>:
ISR(INT2_vect){ }
     68e:	1f 92       	push	r1
     690:	0f 92       	push	r0
     692:	0f b6       	in	r0, 0x3f	; 63
     694:	0f 92       	push	r0
     696:	11 24       	eor	r1, r1
     698:	0f 90       	pop	r0
     69a:	0f be       	out	0x3f, r0	; 63
     69c:	0f 90       	pop	r0
     69e:	1f 90       	pop	r1
     6a0:	18 95       	reti

000006a2 <__vector_4>:
ISR(INT3_vect){ }
     6a2:	1f 92       	push	r1
     6a4:	0f 92       	push	r0
     6a6:	0f b6       	in	r0, 0x3f	; 63
     6a8:	0f 92       	push	r0
     6aa:	11 24       	eor	r1, r1
     6ac:	0f 90       	pop	r0
     6ae:	0f be       	out	0x3f, r0	; 63
     6b0:	0f 90       	pop	r0
     6b2:	1f 90       	pop	r1
     6b4:	18 95       	reti

000006b6 <__vector_5>:
ISR(INT4_vect){ }
     6b6:	1f 92       	push	r1
     6b8:	0f 92       	push	r0
     6ba:	0f b6       	in	r0, 0x3f	; 63
     6bc:	0f 92       	push	r0
     6be:	11 24       	eor	r1, r1
     6c0:	0f 90       	pop	r0
     6c2:	0f be       	out	0x3f, r0	; 63
     6c4:	0f 90       	pop	r0
     6c6:	1f 90       	pop	r1
     6c8:	18 95       	reti

000006ca <__vector_6>:
ISR(INT5_vect){ }
     6ca:	1f 92       	push	r1
     6cc:	0f 92       	push	r0
     6ce:	0f b6       	in	r0, 0x3f	; 63
     6d0:	0f 92       	push	r0
     6d2:	11 24       	eor	r1, r1
     6d4:	0f 90       	pop	r0
     6d6:	0f be       	out	0x3f, r0	; 63
     6d8:	0f 90       	pop	r0
     6da:	1f 90       	pop	r1
     6dc:	18 95       	reti

000006de <__vector_8>:
//ISR(INT6_vect){ }
ISR(INT7_vect){ }
     6de:	1f 92       	push	r1
     6e0:	0f 92       	push	r0
     6e2:	0f b6       	in	r0, 0x3f	; 63
     6e4:	0f 92       	push	r0
     6e6:	11 24       	eor	r1, r1
     6e8:	0f 90       	pop	r0
     6ea:	0f be       	out	0x3f, r0	; 63
     6ec:	0f 90       	pop	r0
     6ee:	1f 90       	pop	r1
     6f0:	18 95       	reti

000006f2 <__vector_17>:
    return SPI_DATA_REGISTER;
}
/*
** interrupt
*/
ISR(SPI_STC_vect){ }
     6f2:	1f 92       	push	r1
     6f4:	0f 92       	push	r0
     6f6:	0f b6       	in	r0, 0x3f	; 63
     6f8:	0f 92       	push	r0
     6fa:	11 24       	eor	r1, r1
     6fc:	0f 90       	pop	r0
     6fe:	0f be       	out	0x3f, r0	; 63
     700:	0f 90       	pop	r0
     702:	1f 90       	pop	r1
     704:	18 95       	reti

00000706 <TIMER_COUNTER1_start>:
		timer2.compare=TIMER_COUNTER2_compare;
		timer2.start=TIMER_COUNTER2_start;
		timer2.stop=TIMER_COUNTER2_stop;
	
	return timer2;
}
     706:	20 91 f1 01 	lds	r18, 0x01F1	; 0x8001f1 <timer1_state>
     70a:	21 11       	cpse	r18, r1
     70c:	42 c0       	rjmp	.+132    	; 0x792 <TIMER_COUNTER1_start+0x8c>
     70e:	2f ef       	ldi	r18, 0xFF	; 255
     710:	3f ef       	ldi	r19, 0xFF	; 255
     712:	3b bd       	out	0x2b, r19	; 43
     714:	2a bd       	out	0x2a, r18	; 42
     716:	2e b5       	in	r18, 0x2e	; 46
     718:	28 7f       	andi	r18, 0xF8	; 248
     71a:	2e bd       	out	0x2e, r18	; 46
     71c:	88 30       	cpi	r24, 0x08	; 8
     71e:	91 05       	cpc	r25, r1
     720:	d1 f0       	breq	.+52     	; 0x756 <TIMER_COUNTER1_start+0x50>
     722:	48 f4       	brcc	.+18     	; 0x736 <TIMER_COUNTER1_start+0x30>
     724:	83 30       	cpi	r24, 0x03	; 3
     726:	91 05       	cpc	r25, r1
     728:	31 f1       	breq	.+76     	; 0x776 <TIMER_COUNTER1_start+0x70>
     72a:	85 30       	cpi	r24, 0x05	; 5
     72c:	91 05       	cpc	r25, r1
     72e:	39 f1       	breq	.+78     	; 0x77e <TIMER_COUNTER1_start+0x78>
     730:	01 97       	sbiw	r24, 0x01	; 1
     732:	49 f5       	brne	.+82     	; 0x786 <TIMER_COUNTER1_start+0x80>
     734:	0c c0       	rjmp	.+24     	; 0x74e <TIMER_COUNTER1_start+0x48>
     736:	81 15       	cp	r24, r1
     738:	21 e0       	ldi	r18, 0x01	; 1
     73a:	92 07       	cpc	r25, r18
     73c:	a1 f0       	breq	.+40     	; 0x766 <TIMER_COUNTER1_start+0x60>
     73e:	81 15       	cp	r24, r1
     740:	24 e0       	ldi	r18, 0x04	; 4
     742:	92 07       	cpc	r25, r18
     744:	a1 f0       	breq	.+40     	; 0x76e <TIMER_COUNTER1_start+0x68>
     746:	80 34       	cpi	r24, 0x40	; 64
     748:	91 05       	cpc	r25, r1
     74a:	e9 f4       	brne	.+58     	; 0x786 <TIMER_COUNTER1_start+0x80>
     74c:	08 c0       	rjmp	.+16     	; 0x75e <TIMER_COUNTER1_start+0x58>
     74e:	8e b5       	in	r24, 0x2e	; 46
     750:	81 60       	ori	r24, 0x01	; 1
     752:	8e bd       	out	0x2e, r24	; 46
     754:	1b c0       	rjmp	.+54     	; 0x78c <TIMER_COUNTER1_start+0x86>
     756:	8e b5       	in	r24, 0x2e	; 46
     758:	82 60       	ori	r24, 0x02	; 2
     75a:	8e bd       	out	0x2e, r24	; 46
     75c:	17 c0       	rjmp	.+46     	; 0x78c <TIMER_COUNTER1_start+0x86>
     75e:	8e b5       	in	r24, 0x2e	; 46
     760:	83 60       	ori	r24, 0x03	; 3
     762:	8e bd       	out	0x2e, r24	; 46
     764:	13 c0       	rjmp	.+38     	; 0x78c <TIMER_COUNTER1_start+0x86>
     766:	8e b5       	in	r24, 0x2e	; 46
     768:	84 60       	ori	r24, 0x04	; 4
     76a:	8e bd       	out	0x2e, r24	; 46
     76c:	0f c0       	rjmp	.+30     	; 0x78c <TIMER_COUNTER1_start+0x86>
     76e:	8e b5       	in	r24, 0x2e	; 46
     770:	85 60       	ori	r24, 0x05	; 5
     772:	8e bd       	out	0x2e, r24	; 46
     774:	0b c0       	rjmp	.+22     	; 0x78c <TIMER_COUNTER1_start+0x86>
     776:	8e b5       	in	r24, 0x2e	; 46
     778:	86 60       	ori	r24, 0x06	; 6
     77a:	8e bd       	out	0x2e, r24	; 46
     77c:	07 c0       	rjmp	.+14     	; 0x78c <TIMER_COUNTER1_start+0x86>
     77e:	8e b5       	in	r24, 0x2e	; 46
     780:	87 60       	ori	r24, 0x07	; 7
     782:	8e bd       	out	0x2e, r24	; 46
     784:	03 c0       	rjmp	.+6      	; 0x78c <TIMER_COUNTER1_start+0x86>
     786:	8e b5       	in	r24, 0x2e	; 46
     788:	85 60       	ori	r24, 0x05	; 5
     78a:	8e bd       	out	0x2e, r24	; 46
     78c:	81 e0       	ldi	r24, 0x01	; 1
     78e:	80 93 f1 01 	sts	0x01F1, r24	; 0x8001f1 <timer1_state>
     792:	08 95       	ret

00000794 <TIMER_COUNTER1_compoutmodeA>:
     794:	9f b5       	in	r25, 0x2f	; 47
     796:	9f 73       	andi	r25, 0x3F	; 63
     798:	9f bd       	out	0x2f, r25	; 47
     79a:	82 30       	cpi	r24, 0x02	; 2
     79c:	41 f0       	breq	.+16     	; 0x7ae <TIMER_COUNTER1_compoutmodeA+0x1a>
     79e:	83 30       	cpi	r24, 0x03	; 3
     7a0:	51 f0       	breq	.+20     	; 0x7b6 <TIMER_COUNTER1_compoutmodeA+0x22>
     7a2:	81 30       	cpi	r24, 0x01	; 1
     7a4:	59 f4       	brne	.+22     	; 0x7bc <TIMER_COUNTER1_compoutmodeA+0x28>
     7a6:	8f b5       	in	r24, 0x2f	; 47
     7a8:	80 64       	ori	r24, 0x40	; 64
     7aa:	8f bd       	out	0x2f, r24	; 47
     7ac:	08 95       	ret
     7ae:	8f b5       	in	r24, 0x2f	; 47
     7b0:	80 68       	ori	r24, 0x80	; 128
     7b2:	8f bd       	out	0x2f, r24	; 47
     7b4:	08 95       	ret
     7b6:	8f b5       	in	r24, 0x2f	; 47
     7b8:	80 6c       	ori	r24, 0xC0	; 192
     7ba:	8f bd       	out	0x2f, r24	; 47
     7bc:	08 95       	ret

000007be <TIMER_COUNTER1_compoutmodeB>:
     7be:	9f b5       	in	r25, 0x2f	; 47
     7c0:	9f 7c       	andi	r25, 0xCF	; 207
     7c2:	9f bd       	out	0x2f, r25	; 47
     7c4:	82 30       	cpi	r24, 0x02	; 2
     7c6:	41 f0       	breq	.+16     	; 0x7d8 <TIMER_COUNTER1_compoutmodeB+0x1a>
     7c8:	83 30       	cpi	r24, 0x03	; 3
     7ca:	51 f0       	breq	.+20     	; 0x7e0 <TIMER_COUNTER1_compoutmodeB+0x22>
     7cc:	81 30       	cpi	r24, 0x01	; 1
     7ce:	59 f4       	brne	.+22     	; 0x7e6 <TIMER_COUNTER1_compoutmodeB+0x28>
     7d0:	8f b5       	in	r24, 0x2f	; 47
     7d2:	80 61       	ori	r24, 0x10	; 16
     7d4:	8f bd       	out	0x2f, r24	; 47
     7d6:	08 95       	ret
     7d8:	8f b5       	in	r24, 0x2f	; 47
     7da:	80 62       	ori	r24, 0x20	; 32
     7dc:	8f bd       	out	0x2f, r24	; 47
     7de:	08 95       	ret
     7e0:	8f b5       	in	r24, 0x2f	; 47
     7e2:	80 63       	ori	r24, 0x30	; 48
     7e4:	8f bd       	out	0x2f, r24	; 47
     7e6:	08 95       	ret

000007e8 <TIMER_COUNTER1_compoutmodeC>:
     7e8:	9f b5       	in	r25, 0x2f	; 47
     7ea:	93 7f       	andi	r25, 0xF3	; 243
     7ec:	9f bd       	out	0x2f, r25	; 47
     7ee:	82 30       	cpi	r24, 0x02	; 2
     7f0:	41 f0       	breq	.+16     	; 0x802 <TIMER_COUNTER1_compoutmodeC+0x1a>
     7f2:	83 30       	cpi	r24, 0x03	; 3
     7f4:	51 f0       	breq	.+20     	; 0x80a <TIMER_COUNTER1_compoutmodeC+0x22>
     7f6:	81 30       	cpi	r24, 0x01	; 1
     7f8:	59 f4       	brne	.+22     	; 0x810 <TIMER_COUNTER1_compoutmodeC+0x28>
     7fa:	8f b5       	in	r24, 0x2f	; 47
     7fc:	84 60       	ori	r24, 0x04	; 4
     7fe:	8f bd       	out	0x2f, r24	; 47
     800:	08 95       	ret
     802:	8f b5       	in	r24, 0x2f	; 47
     804:	88 60       	ori	r24, 0x08	; 8
     806:	8f bd       	out	0x2f, r24	; 47
     808:	08 95       	ret
     80a:	8f b5       	in	r24, 0x2f	; 47
     80c:	8c 60       	ori	r24, 0x0C	; 12
     80e:	8f bd       	out	0x2f, r24	; 47
     810:	08 95       	ret

00000812 <TIMER_COUNTER1_compareA>:
     812:	9b bd       	out	0x2b, r25	; 43
     814:	8a bd       	out	0x2a, r24	; 42
     816:	08 95       	ret

00000818 <TIMER_COUNTER1_compareB>:
     818:	99 bd       	out	0x29, r25	; 41
     81a:	88 bd       	out	0x28, r24	; 40
     81c:	08 95       	ret

0000081e <TIMER_COUNTER1_compareC>:
     81e:	90 93 79 00 	sts	0x0079, r25	; 0x800079 <__TEXT_REGION_LENGTH__+0x7e0079>
     822:	80 93 78 00 	sts	0x0078, r24	; 0x800078 <__TEXT_REGION_LENGTH__+0x7e0078>
     826:	08 95       	ret

00000828 <TIMER_COUNTER1_stop>:
     828:	8e b5       	in	r24, 0x2e	; 46
     82a:	88 7f       	andi	r24, 0xF8	; 248
     82c:	8e bd       	out	0x2e, r24	; 46
     82e:	1d bc       	out	0x2d, r1	; 45
     830:	1c bc       	out	0x2c, r1	; 44
     832:	10 92 f1 01 	sts	0x01F1, r1	; 0x8001f1 <timer1_state>
     836:	08 95       	ret

00000838 <TIMER_COUNTER3_start>:
     838:	20 91 f2 01 	lds	r18, 0x01F2	; 0x8001f2 <timer3_state>
     83c:	21 11       	cpse	r18, r1
     83e:	56 c0       	rjmp	.+172    	; 0x8ec <TIMER_COUNTER3_start+0xb4>
     840:	2f ef       	ldi	r18, 0xFF	; 255
     842:	3f ef       	ldi	r19, 0xFF	; 255
     844:	30 93 87 00 	sts	0x0087, r19	; 0x800087 <__TEXT_REGION_LENGTH__+0x7e0087>
     848:	20 93 86 00 	sts	0x0086, r18	; 0x800086 <__TEXT_REGION_LENGTH__+0x7e0086>
     84c:	ea e8       	ldi	r30, 0x8A	; 138
     84e:	f0 e0       	ldi	r31, 0x00	; 0
     850:	20 81       	ld	r18, Z
     852:	28 7f       	andi	r18, 0xF8	; 248
     854:	20 83       	st	Z, r18
     856:	88 30       	cpi	r24, 0x08	; 8
     858:	91 05       	cpc	r25, r1
     85a:	e1 f0       	breq	.+56     	; 0x894 <TIMER_COUNTER3_start+0x5c>
     85c:	48 f4       	brcc	.+18     	; 0x870 <TIMER_COUNTER3_start+0x38>
     85e:	83 30       	cpi	r24, 0x03	; 3
     860:	91 05       	cpc	r25, r1
     862:	81 f1       	breq	.+96     	; 0x8c4 <TIMER_COUNTER3_start+0x8c>
     864:	85 30       	cpi	r24, 0x05	; 5
     866:	91 05       	cpc	r25, r1
     868:	99 f1       	breq	.+102    	; 0x8d0 <TIMER_COUNTER3_start+0x98>
     86a:	01 97       	sbiw	r24, 0x01	; 1
     86c:	b9 f5       	brne	.+110    	; 0x8dc <TIMER_COUNTER3_start+0xa4>
     86e:	0c c0       	rjmp	.+24     	; 0x888 <TIMER_COUNTER3_start+0x50>
     870:	81 15       	cp	r24, r1
     872:	21 e0       	ldi	r18, 0x01	; 1
     874:	92 07       	cpc	r25, r18
     876:	d1 f0       	breq	.+52     	; 0x8ac <TIMER_COUNTER3_start+0x74>
     878:	81 15       	cp	r24, r1
     87a:	24 e0       	ldi	r18, 0x04	; 4
     87c:	92 07       	cpc	r25, r18
     87e:	e1 f0       	breq	.+56     	; 0x8b8 <TIMER_COUNTER3_start+0x80>
     880:	80 34       	cpi	r24, 0x40	; 64
     882:	91 05       	cpc	r25, r1
     884:	59 f5       	brne	.+86     	; 0x8dc <TIMER_COUNTER3_start+0xa4>
     886:	0c c0       	rjmp	.+24     	; 0x8a0 <TIMER_COUNTER3_start+0x68>
     888:	ea e8       	ldi	r30, 0x8A	; 138
     88a:	f0 e0       	ldi	r31, 0x00	; 0
     88c:	80 81       	ld	r24, Z
     88e:	81 60       	ori	r24, 0x01	; 1
     890:	80 83       	st	Z, r24
     892:	29 c0       	rjmp	.+82     	; 0x8e6 <TIMER_COUNTER3_start+0xae>
     894:	ea e8       	ldi	r30, 0x8A	; 138
     896:	f0 e0       	ldi	r31, 0x00	; 0
     898:	80 81       	ld	r24, Z
     89a:	82 60       	ori	r24, 0x02	; 2
     89c:	80 83       	st	Z, r24
     89e:	23 c0       	rjmp	.+70     	; 0x8e6 <TIMER_COUNTER3_start+0xae>
     8a0:	ea e8       	ldi	r30, 0x8A	; 138
     8a2:	f0 e0       	ldi	r31, 0x00	; 0
     8a4:	80 81       	ld	r24, Z
     8a6:	83 60       	ori	r24, 0x03	; 3
     8a8:	80 83       	st	Z, r24
     8aa:	1d c0       	rjmp	.+58     	; 0x8e6 <TIMER_COUNTER3_start+0xae>
     8ac:	ea e8       	ldi	r30, 0x8A	; 138
     8ae:	f0 e0       	ldi	r31, 0x00	; 0
     8b0:	80 81       	ld	r24, Z
     8b2:	84 60       	ori	r24, 0x04	; 4
     8b4:	80 83       	st	Z, r24
     8b6:	17 c0       	rjmp	.+46     	; 0x8e6 <TIMER_COUNTER3_start+0xae>
     8b8:	ea e8       	ldi	r30, 0x8A	; 138
     8ba:	f0 e0       	ldi	r31, 0x00	; 0
     8bc:	80 81       	ld	r24, Z
     8be:	85 60       	ori	r24, 0x05	; 5
     8c0:	80 83       	st	Z, r24
     8c2:	11 c0       	rjmp	.+34     	; 0x8e6 <TIMER_COUNTER3_start+0xae>
     8c4:	ea e8       	ldi	r30, 0x8A	; 138
     8c6:	f0 e0       	ldi	r31, 0x00	; 0
     8c8:	80 81       	ld	r24, Z
     8ca:	86 60       	ori	r24, 0x06	; 6
     8cc:	80 83       	st	Z, r24
     8ce:	0b c0       	rjmp	.+22     	; 0x8e6 <TIMER_COUNTER3_start+0xae>
     8d0:	ea e8       	ldi	r30, 0x8A	; 138
     8d2:	f0 e0       	ldi	r31, 0x00	; 0
     8d4:	80 81       	ld	r24, Z
     8d6:	87 60       	ori	r24, 0x07	; 7
     8d8:	80 83       	st	Z, r24
     8da:	05 c0       	rjmp	.+10     	; 0x8e6 <TIMER_COUNTER3_start+0xae>
     8dc:	ea e8       	ldi	r30, 0x8A	; 138
     8de:	f0 e0       	ldi	r31, 0x00	; 0
     8e0:	80 81       	ld	r24, Z
     8e2:	85 60       	ori	r24, 0x05	; 5
     8e4:	80 83       	st	Z, r24
     8e6:	81 e0       	ldi	r24, 0x01	; 1
     8e8:	80 93 f2 01 	sts	0x01F2, r24	; 0x8001f2 <timer3_state>
     8ec:	08 95       	ret

000008ee <TIMER_COUNTER3_compoutmodeA>:
     8ee:	eb e8       	ldi	r30, 0x8B	; 139
     8f0:	f0 e0       	ldi	r31, 0x00	; 0
     8f2:	90 81       	ld	r25, Z
     8f4:	9f 73       	andi	r25, 0x3F	; 63
     8f6:	90 83       	st	Z, r25
     8f8:	82 30       	cpi	r24, 0x02	; 2
     8fa:	41 f0       	breq	.+16     	; 0x90c <TIMER_COUNTER3_compoutmodeA+0x1e>
     8fc:	83 30       	cpi	r24, 0x03	; 3
     8fe:	61 f0       	breq	.+24     	; 0x918 <TIMER_COUNTER3_compoutmodeA+0x2a>
     900:	81 30       	cpi	r24, 0x01	; 1
     902:	79 f4       	brne	.+30     	; 0x922 <TIMER_COUNTER3_compoutmodeA+0x34>
     904:	80 81       	ld	r24, Z
     906:	80 64       	ori	r24, 0x40	; 64
     908:	80 83       	st	Z, r24
     90a:	08 95       	ret
     90c:	eb e8       	ldi	r30, 0x8B	; 139
     90e:	f0 e0       	ldi	r31, 0x00	; 0
     910:	80 81       	ld	r24, Z
     912:	80 68       	ori	r24, 0x80	; 128
     914:	80 83       	st	Z, r24
     916:	08 95       	ret
     918:	eb e8       	ldi	r30, 0x8B	; 139
     91a:	f0 e0       	ldi	r31, 0x00	; 0
     91c:	80 81       	ld	r24, Z
     91e:	80 6c       	ori	r24, 0xC0	; 192
     920:	80 83       	st	Z, r24
     922:	08 95       	ret

00000924 <TIMER_COUNTER3_compoutmodeB>:
     924:	eb e8       	ldi	r30, 0x8B	; 139
     926:	f0 e0       	ldi	r31, 0x00	; 0
     928:	90 81       	ld	r25, Z
     92a:	9f 7c       	andi	r25, 0xCF	; 207
     92c:	90 83       	st	Z, r25
     92e:	82 30       	cpi	r24, 0x02	; 2
     930:	41 f0       	breq	.+16     	; 0x942 <TIMER_COUNTER3_compoutmodeB+0x1e>
     932:	83 30       	cpi	r24, 0x03	; 3
     934:	61 f0       	breq	.+24     	; 0x94e <TIMER_COUNTER3_compoutmodeB+0x2a>
     936:	81 30       	cpi	r24, 0x01	; 1
     938:	79 f4       	brne	.+30     	; 0x958 <TIMER_COUNTER3_compoutmodeB+0x34>
     93a:	80 81       	ld	r24, Z
     93c:	80 61       	ori	r24, 0x10	; 16
     93e:	80 83       	st	Z, r24
     940:	08 95       	ret
     942:	eb e8       	ldi	r30, 0x8B	; 139
     944:	f0 e0       	ldi	r31, 0x00	; 0
     946:	80 81       	ld	r24, Z
     948:	80 62       	ori	r24, 0x20	; 32
     94a:	80 83       	st	Z, r24
     94c:	08 95       	ret
     94e:	eb e8       	ldi	r30, 0x8B	; 139
     950:	f0 e0       	ldi	r31, 0x00	; 0
     952:	80 81       	ld	r24, Z
     954:	80 63       	ori	r24, 0x30	; 48
     956:	80 83       	st	Z, r24
     958:	08 95       	ret

0000095a <TIMER_COUNTER3_compoutmodeC>:
     95a:	eb e8       	ldi	r30, 0x8B	; 139
     95c:	f0 e0       	ldi	r31, 0x00	; 0
     95e:	90 81       	ld	r25, Z
     960:	93 7f       	andi	r25, 0xF3	; 243
     962:	90 83       	st	Z, r25
     964:	82 30       	cpi	r24, 0x02	; 2
     966:	41 f0       	breq	.+16     	; 0x978 <TIMER_COUNTER3_compoutmodeC+0x1e>
     968:	83 30       	cpi	r24, 0x03	; 3
     96a:	61 f0       	breq	.+24     	; 0x984 <TIMER_COUNTER3_compoutmodeC+0x2a>
     96c:	81 30       	cpi	r24, 0x01	; 1
     96e:	79 f4       	brne	.+30     	; 0x98e <TIMER_COUNTER3_compoutmodeC+0x34>
     970:	80 81       	ld	r24, Z
     972:	84 60       	ori	r24, 0x04	; 4
     974:	80 83       	st	Z, r24
     976:	08 95       	ret
     978:	eb e8       	ldi	r30, 0x8B	; 139
     97a:	f0 e0       	ldi	r31, 0x00	; 0
     97c:	80 81       	ld	r24, Z
     97e:	88 60       	ori	r24, 0x08	; 8
     980:	80 83       	st	Z, r24
     982:	08 95       	ret
     984:	eb e8       	ldi	r30, 0x8B	; 139
     986:	f0 e0       	ldi	r31, 0x00	; 0
     988:	80 81       	ld	r24, Z
     98a:	8c 60       	ori	r24, 0x0C	; 12
     98c:	80 83       	st	Z, r24
     98e:	08 95       	ret

00000990 <TIMER_COUNTER3_compareA>:
     990:	90 93 87 00 	sts	0x0087, r25	; 0x800087 <__TEXT_REGION_LENGTH__+0x7e0087>
     994:	80 93 86 00 	sts	0x0086, r24	; 0x800086 <__TEXT_REGION_LENGTH__+0x7e0086>
     998:	08 95       	ret

0000099a <TIMER_COUNTER3_compareB>:
     99a:	90 93 85 00 	sts	0x0085, r25	; 0x800085 <__TEXT_REGION_LENGTH__+0x7e0085>
     99e:	80 93 84 00 	sts	0x0084, r24	; 0x800084 <__TEXT_REGION_LENGTH__+0x7e0084>
     9a2:	08 95       	ret

000009a4 <TIMER_COUNTER3_compareC>:
     9a4:	90 93 83 00 	sts	0x0083, r25	; 0x800083 <__TEXT_REGION_LENGTH__+0x7e0083>
     9a8:	80 93 82 00 	sts	0x0082, r24	; 0x800082 <__TEXT_REGION_LENGTH__+0x7e0082>
     9ac:	08 95       	ret

000009ae <TIMER_COUNTER3_stop>:
     9ae:	ea e8       	ldi	r30, 0x8A	; 138
     9b0:	f0 e0       	ldi	r31, 0x00	; 0
     9b2:	80 81       	ld	r24, Z
     9b4:	88 7f       	andi	r24, 0xF8	; 248
     9b6:	80 83       	st	Z, r24
     9b8:	10 92 89 00 	sts	0x0089, r1	; 0x800089 <__TEXT_REGION_LENGTH__+0x7e0089>
     9bc:	10 92 88 00 	sts	0x0088, r1	; 0x800088 <__TEXT_REGION_LENGTH__+0x7e0088>
     9c0:	10 92 f2 01 	sts	0x01F2, r1	; 0x8001f2 <timer3_state>
     9c4:	08 95       	ret

000009c6 <TIMER_COUNTER1enable>:
     9c6:	0f 93       	push	r16
     9c8:	1f 93       	push	r17
     9ca:	dc 01       	movw	r26, r24
     9cc:	10 92 f1 01 	sts	0x01F1, r1	; 0x8001f1 <timer1_state>
     9d0:	8f b5       	in	r24, 0x2f	; 47
     9d2:	8c 7f       	andi	r24, 0xFC	; 252
     9d4:	8f bd       	out	0x2f, r24	; 47
     9d6:	8e b5       	in	r24, 0x2e	; 46
     9d8:	87 7e       	andi	r24, 0xE7	; 231
     9da:	8e bd       	out	0x2e, r24	; 46
     9dc:	06 2f       	mov	r16, r22
     9de:	10 e0       	ldi	r17, 0x00	; 0
     9e0:	f8 01       	movw	r30, r16
     9e2:	31 97       	sbiw	r30, 0x01	; 1
     9e4:	ef 30       	cpi	r30, 0x0F	; 15
     9e6:	f1 05       	cpc	r31, r1
     9e8:	08 f0       	brcs	.+2      	; 0x9ec <TIMER_COUNTER1enable+0x26>
     9ea:	5a c0       	rjmp	.+180    	; 0xaa0 <TIMER_COUNTER1enable+0xda>
     9ec:	ea 5a       	subi	r30, 0xAA	; 170
     9ee:	ff 4f       	sbci	r31, 0xFF	; 255
     9f0:	0c 94 5c 19 	jmp	0x32b8	; 0x32b8 <__tablejump2__>
     9f4:	8f b5       	in	r24, 0x2f	; 47
     9f6:	81 60       	ori	r24, 0x01	; 1
     9f8:	8f bd       	out	0x2f, r24	; 47
     9fa:	52 c0       	rjmp	.+164    	; 0xaa0 <TIMER_COUNTER1enable+0xda>
     9fc:	8f b5       	in	r24, 0x2f	; 47
     9fe:	82 60       	ori	r24, 0x02	; 2
     a00:	8f bd       	out	0x2f, r24	; 47
     a02:	4e c0       	rjmp	.+156    	; 0xaa0 <TIMER_COUNTER1enable+0xda>
     a04:	8f b5       	in	r24, 0x2f	; 47
     a06:	83 60       	ori	r24, 0x03	; 3
     a08:	8f bd       	out	0x2f, r24	; 47
     a0a:	4a c0       	rjmp	.+148    	; 0xaa0 <TIMER_COUNTER1enable+0xda>
     a0c:	8e b5       	in	r24, 0x2e	; 46
     a0e:	88 60       	ori	r24, 0x08	; 8
     a10:	8e bd       	out	0x2e, r24	; 46
     a12:	46 c0       	rjmp	.+140    	; 0xaa0 <TIMER_COUNTER1enable+0xda>
     a14:	8f b5       	in	r24, 0x2f	; 47
     a16:	81 60       	ori	r24, 0x01	; 1
     a18:	8f bd       	out	0x2f, r24	; 47
     a1a:	8e b5       	in	r24, 0x2e	; 46
     a1c:	88 60       	ori	r24, 0x08	; 8
     a1e:	8e bd       	out	0x2e, r24	; 46
     a20:	3f c0       	rjmp	.+126    	; 0xaa0 <TIMER_COUNTER1enable+0xda>
     a22:	8f b5       	in	r24, 0x2f	; 47
     a24:	82 60       	ori	r24, 0x02	; 2
     a26:	8f bd       	out	0x2f, r24	; 47
     a28:	8e b5       	in	r24, 0x2e	; 46
     a2a:	88 60       	ori	r24, 0x08	; 8
     a2c:	8e bd       	out	0x2e, r24	; 46
     a2e:	38 c0       	rjmp	.+112    	; 0xaa0 <TIMER_COUNTER1enable+0xda>
     a30:	8f b5       	in	r24, 0x2f	; 47
     a32:	83 60       	ori	r24, 0x03	; 3
     a34:	8f bd       	out	0x2f, r24	; 47
     a36:	8e b5       	in	r24, 0x2e	; 46
     a38:	88 60       	ori	r24, 0x08	; 8
     a3a:	8e bd       	out	0x2e, r24	; 46
     a3c:	31 c0       	rjmp	.+98     	; 0xaa0 <TIMER_COUNTER1enable+0xda>
     a3e:	8e b5       	in	r24, 0x2e	; 46
     a40:	80 61       	ori	r24, 0x10	; 16
     a42:	8e bd       	out	0x2e, r24	; 46
     a44:	2d c0       	rjmp	.+90     	; 0xaa0 <TIMER_COUNTER1enable+0xda>
     a46:	8f b5       	in	r24, 0x2f	; 47
     a48:	81 60       	ori	r24, 0x01	; 1
     a4a:	8f bd       	out	0x2f, r24	; 47
     a4c:	8e b5       	in	r24, 0x2e	; 46
     a4e:	80 61       	ori	r24, 0x10	; 16
     a50:	8e bd       	out	0x2e, r24	; 46
     a52:	26 c0       	rjmp	.+76     	; 0xaa0 <TIMER_COUNTER1enable+0xda>
     a54:	8f b5       	in	r24, 0x2f	; 47
     a56:	82 60       	ori	r24, 0x02	; 2
     a58:	8f bd       	out	0x2f, r24	; 47
     a5a:	8e b5       	in	r24, 0x2e	; 46
     a5c:	80 61       	ori	r24, 0x10	; 16
     a5e:	8e bd       	out	0x2e, r24	; 46
     a60:	1f c0       	rjmp	.+62     	; 0xaa0 <TIMER_COUNTER1enable+0xda>
     a62:	8f b5       	in	r24, 0x2f	; 47
     a64:	83 60       	ori	r24, 0x03	; 3
     a66:	8f bd       	out	0x2f, r24	; 47
     a68:	8e b5       	in	r24, 0x2e	; 46
     a6a:	80 61       	ori	r24, 0x10	; 16
     a6c:	8e bd       	out	0x2e, r24	; 46
     a6e:	18 c0       	rjmp	.+48     	; 0xaa0 <TIMER_COUNTER1enable+0xda>
     a70:	8e b5       	in	r24, 0x2e	; 46
     a72:	88 61       	ori	r24, 0x18	; 24
     a74:	8e bd       	out	0x2e, r24	; 46
     a76:	14 c0       	rjmp	.+40     	; 0xaa0 <TIMER_COUNTER1enable+0xda>
     a78:	8f b5       	in	r24, 0x2f	; 47
     a7a:	81 60       	ori	r24, 0x01	; 1
     a7c:	8f bd       	out	0x2f, r24	; 47
     a7e:	8e b5       	in	r24, 0x2e	; 46
     a80:	88 61       	ori	r24, 0x18	; 24
     a82:	8e bd       	out	0x2e, r24	; 46
     a84:	0d c0       	rjmp	.+26     	; 0xaa0 <TIMER_COUNTER1enable+0xda>
     a86:	8f b5       	in	r24, 0x2f	; 47
     a88:	82 60       	ori	r24, 0x02	; 2
     a8a:	8f bd       	out	0x2f, r24	; 47
     a8c:	8e b5       	in	r24, 0x2e	; 46
     a8e:	88 61       	ori	r24, 0x18	; 24
     a90:	8e bd       	out	0x2e, r24	; 46
     a92:	06 c0       	rjmp	.+12     	; 0xaa0 <TIMER_COUNTER1enable+0xda>
     a94:	8f b5       	in	r24, 0x2f	; 47
     a96:	83 60       	ori	r24, 0x03	; 3
     a98:	8f bd       	out	0x2f, r24	; 47
     a9a:	8e b5       	in	r24, 0x2e	; 46
     a9c:	88 61       	ori	r24, 0x18	; 24
     a9e:	8e bd       	out	0x2e, r24	; 46
     aa0:	8f b5       	in	r24, 0x2f	; 47
     aa2:	83 70       	andi	r24, 0x03	; 3
     aa4:	8f bd       	out	0x2f, r24	; 47
     aa6:	87 b7       	in	r24, 0x37	; 55
     aa8:	83 7c       	andi	r24, 0xC3	; 195
     aaa:	87 bf       	out	0x37, r24	; 55
     aac:	ed e7       	ldi	r30, 0x7D	; 125
     aae:	f0 e0       	ldi	r31, 0x00	; 0
     ab0:	80 81       	ld	r24, Z
     ab2:	8e 7f       	andi	r24, 0xFE	; 254
     ab4:	80 83       	st	Z, r24
     ab6:	50 e0       	ldi	r21, 0x00	; 0
     ab8:	fa 01       	movw	r30, r20
     aba:	31 97       	sbiw	r30, 0x01	; 1
     abc:	ec 30       	cpi	r30, 0x0C	; 12
     abe:	f1 05       	cpc	r31, r1
     ac0:	08 f0       	brcs	.+2      	; 0xac4 <TIMER_COUNTER1enable+0xfe>
     ac2:	44 c0       	rjmp	.+136    	; 0xb4c <TIMER_COUNTER1enable+0x186>
     ac4:	eb 59       	subi	r30, 0x9B	; 155
     ac6:	ff 4f       	sbci	r31, 0xFF	; 255
     ac8:	0c 94 5c 19 	jmp	0x32b8	; 0x32b8 <__tablejump2__>
     acc:	87 b7       	in	r24, 0x37	; 55
     ace:	84 60       	ori	r24, 0x04	; 4
     ad0:	87 bf       	out	0x37, r24	; 55
     ad2:	3c c0       	rjmp	.+120    	; 0xb4c <TIMER_COUNTER1enable+0x186>
     ad4:	87 b7       	in	r24, 0x37	; 55
     ad6:	80 61       	ori	r24, 0x10	; 16
     ad8:	87 bf       	out	0x37, r24	; 55
     ada:	38 c0       	rjmp	.+112    	; 0xb4c <TIMER_COUNTER1enable+0x186>
     adc:	87 b7       	in	r24, 0x37	; 55
     ade:	88 60       	ori	r24, 0x08	; 8
     ae0:	87 bf       	out	0x37, r24	; 55
     ae2:	34 c0       	rjmp	.+104    	; 0xb4c <TIMER_COUNTER1enable+0x186>
     ae4:	ed e7       	ldi	r30, 0x7D	; 125
     ae6:	f0 e0       	ldi	r31, 0x00	; 0
     ae8:	80 81       	ld	r24, Z
     aea:	81 60       	ori	r24, 0x01	; 1
     aec:	80 83       	st	Z, r24
     aee:	2e c0       	rjmp	.+92     	; 0xb4c <TIMER_COUNTER1enable+0x186>
     af0:	87 b7       	in	r24, 0x37	; 55
     af2:	80 62       	ori	r24, 0x20	; 32
     af4:	87 bf       	out	0x37, r24	; 55
     af6:	2a c0       	rjmp	.+84     	; 0xb4c <TIMER_COUNTER1enable+0x186>
     af8:	87 b7       	in	r24, 0x37	; 55
     afa:	84 61       	ori	r24, 0x14	; 20
     afc:	87 bf       	out	0x37, r24	; 55
     afe:	26 c0       	rjmp	.+76     	; 0xb4c <TIMER_COUNTER1enable+0x186>
     b00:	87 b7       	in	r24, 0x37	; 55
     b02:	8c 60       	ori	r24, 0x0C	; 12
     b04:	87 bf       	out	0x37, r24	; 55
     b06:	22 c0       	rjmp	.+68     	; 0xb4c <TIMER_COUNTER1enable+0x186>
     b08:	87 b7       	in	r24, 0x37	; 55
     b0a:	84 60       	ori	r24, 0x04	; 4
     b0c:	87 bf       	out	0x37, r24	; 55
     b0e:	ed e7       	ldi	r30, 0x7D	; 125
     b10:	f0 e0       	ldi	r31, 0x00	; 0
     b12:	80 81       	ld	r24, Z
     b14:	81 60       	ori	r24, 0x01	; 1
     b16:	80 83       	st	Z, r24
     b18:	19 c0       	rjmp	.+50     	; 0xb4c <TIMER_COUNTER1enable+0x186>
     b1a:	87 b7       	in	r24, 0x37	; 55
     b1c:	84 62       	ori	r24, 0x24	; 36
     b1e:	87 bf       	out	0x37, r24	; 55
     b20:	15 c0       	rjmp	.+42     	; 0xb4c <TIMER_COUNTER1enable+0x186>
     b22:	87 b7       	in	r24, 0x37	; 55
     b24:	8c 61       	ori	r24, 0x1C	; 28
     b26:	87 bf       	out	0x37, r24	; 55
     b28:	11 c0       	rjmp	.+34     	; 0xb4c <TIMER_COUNTER1enable+0x186>
     b2a:	87 b7       	in	r24, 0x37	; 55
     b2c:	8c 61       	ori	r24, 0x1C	; 28
     b2e:	87 bf       	out	0x37, r24	; 55
     b30:	ed e7       	ldi	r30, 0x7D	; 125
     b32:	f0 e0       	ldi	r31, 0x00	; 0
     b34:	80 81       	ld	r24, Z
     b36:	81 60       	ori	r24, 0x01	; 1
     b38:	80 83       	st	Z, r24
     b3a:	08 c0       	rjmp	.+16     	; 0xb4c <TIMER_COUNTER1enable+0x186>
     b3c:	87 b7       	in	r24, 0x37	; 55
     b3e:	88 61       	ori	r24, 0x18	; 24
     b40:	87 bf       	out	0x37, r24	; 55
     b42:	ed e7       	ldi	r30, 0x7D	; 125
     b44:	f0 e0       	ldi	r31, 0x00	; 0
     b46:	80 81       	ld	r24, Z
     b48:	81 60       	ori	r24, 0x01	; 1
     b4a:	80 83       	st	Z, r24
     b4c:	8a ec       	ldi	r24, 0xCA	; 202
     b4e:	93 e0       	ldi	r25, 0x03	; 3
     b50:	11 96       	adiw	r26, 0x01	; 1
     b52:	9c 93       	st	X, r25
     b54:	8e 93       	st	-X, r24
     b56:	8f ed       	ldi	r24, 0xDF	; 223
     b58:	93 e0       	ldi	r25, 0x03	; 3
     b5a:	13 96       	adiw	r26, 0x03	; 3
     b5c:	9c 93       	st	X, r25
     b5e:	8e 93       	st	-X, r24
     b60:	12 97       	sbiw	r26, 0x02	; 2
     b62:	84 ef       	ldi	r24, 0xF4	; 244
     b64:	93 e0       	ldi	r25, 0x03	; 3
     b66:	15 96       	adiw	r26, 0x05	; 5
     b68:	9c 93       	st	X, r25
     b6a:	8e 93       	st	-X, r24
     b6c:	14 97       	sbiw	r26, 0x04	; 4
     b6e:	89 e0       	ldi	r24, 0x09	; 9
     b70:	94 e0       	ldi	r25, 0x04	; 4
     b72:	17 96       	adiw	r26, 0x07	; 7
     b74:	9c 93       	st	X, r25
     b76:	8e 93       	st	-X, r24
     b78:	16 97       	sbiw	r26, 0x06	; 6
     b7a:	8c e0       	ldi	r24, 0x0C	; 12
     b7c:	94 e0       	ldi	r25, 0x04	; 4
     b7e:	19 96       	adiw	r26, 0x09	; 9
     b80:	9c 93       	st	X, r25
     b82:	8e 93       	st	-X, r24
     b84:	18 97       	sbiw	r26, 0x08	; 8
     b86:	8f e0       	ldi	r24, 0x0F	; 15
     b88:	94 e0       	ldi	r25, 0x04	; 4
     b8a:	1b 96       	adiw	r26, 0x0b	; 11
     b8c:	9c 93       	st	X, r25
     b8e:	8e 93       	st	-X, r24
     b90:	1a 97       	sbiw	r26, 0x0a	; 10
     b92:	83 e8       	ldi	r24, 0x83	; 131
     b94:	93 e0       	ldi	r25, 0x03	; 3
     b96:	1d 96       	adiw	r26, 0x0d	; 13
     b98:	9c 93       	st	X, r25
     b9a:	8e 93       	st	-X, r24
     b9c:	1c 97       	sbiw	r26, 0x0c	; 12
     b9e:	84 e1       	ldi	r24, 0x14	; 20
     ba0:	94 e0       	ldi	r25, 0x04	; 4
     ba2:	1f 96       	adiw	r26, 0x0f	; 15
     ba4:	9c 93       	st	X, r25
     ba6:	8e 93       	st	-X, r24
     ba8:	1e 97       	sbiw	r26, 0x0e	; 14
     baa:	cd 01       	movw	r24, r26
     bac:	1f 91       	pop	r17
     bae:	0f 91       	pop	r16
     bb0:	08 95       	ret

00000bb2 <TIMER_COUNTER3enable>:
		CTC; Fast PWM, 8-bit; Fast PWM, 9-bit; Fast PWM, 10-bit; PWM, Phase and Frequency Correct; PWM, Phase and Frequency Correct;
		PWM, Phase Correct; PWM, Phase Correct; CTC; (Reserved); Fast PWM; Fast PWM.
		interrupt: off; overflow; output compare; both; default - non.
		for more information read datasheet.
	*/
	{
     bb2:	0f 93       	push	r16
     bb4:	1f 93       	push	r17
     bb6:	cf 93       	push	r28
     bb8:	df 93       	push	r29
     bba:	dc 01       	movw	r26, r24
		TIMER_COUNTER3 timer3;
		timer3_state=0;
     bbc:	10 92 f2 01 	sts	0x01F2, r1	; 0x8001f2 <timer3_state>
		TIMER_COUNTER3A_CONTROL_REGISTER&=~((1<<WGM31) | (1<<WGM30));
     bc0:	cb e8       	ldi	r28, 0x8B	; 139
     bc2:	d0 e0       	ldi	r29, 0x00	; 0
     bc4:	88 81       	ld	r24, Y
     bc6:	8c 7f       	andi	r24, 0xFC	; 252
     bc8:	88 83       	st	Y, r24
		TIMER_COUNTER3B_CONTROL_REGISTER&=~((1<<WGM33) | (1<<WGM32));
     bca:	ca e8       	ldi	r28, 0x8A	; 138
     bcc:	d0 e0       	ldi	r29, 0x00	; 0
     bce:	88 81       	ld	r24, Y
     bd0:	87 7e       	andi	r24, 0xE7	; 231
     bd2:	88 83       	st	Y, r24
		switch(wavegenmode){
     bd4:	06 2f       	mov	r16, r22
     bd6:	10 e0       	ldi	r17, 0x00	; 0
     bd8:	f8 01       	movw	r30, r16
     bda:	31 97       	sbiw	r30, 0x01	; 1
     bdc:	ef 30       	cpi	r30, 0x0F	; 15
     bde:	f1 05       	cpc	r31, r1
     be0:	08 f0       	brcs	.+2      	; 0xbe4 <TIMER_COUNTER3enable+0x32>
     be2:	8a c0       	rjmp	.+276    	; 0xcf8 <TIMER_COUNTER3enable+0x146>
     be4:	ef 58       	subi	r30, 0x8F	; 143
     be6:	ff 4f       	sbci	r31, 0xFF	; 255
     be8:	0c 94 5c 19 	jmp	0x32b8	; 0x32b8 <__tablejump2__>
			case 0: // Normal
				break;
			case 1: // PWM, Phase Correct, 8-bit
				TIMER_COUNTER3A_CONTROL_REGISTER|=(1<<WGM30);
     bec:	eb e8       	ldi	r30, 0x8B	; 139
     bee:	f0 e0       	ldi	r31, 0x00	; 0
     bf0:	80 81       	ld	r24, Z
     bf2:	81 60       	ori	r24, 0x01	; 1
     bf4:	80 83       	st	Z, r24
				break;
     bf6:	80 c0       	rjmp	.+256    	; 0xcf8 <TIMER_COUNTER3enable+0x146>
			case 2:	// PWM, Phase Correct, 9-bit
				TIMER_COUNTER3A_CONTROL_REGISTER|=(1<<WGM31);
     bf8:	eb e8       	ldi	r30, 0x8B	; 139
     bfa:	f0 e0       	ldi	r31, 0x00	; 0
     bfc:	80 81       	ld	r24, Z
     bfe:	82 60       	ori	r24, 0x02	; 2
     c00:	80 83       	st	Z, r24
				break;
     c02:	7a c0       	rjmp	.+244    	; 0xcf8 <TIMER_COUNTER3enable+0x146>
			case 3:	// PWM, Phase Correct, 10-bit
				TIMER_COUNTER3A_CONTROL_REGISTER|=(1<<WGM31) | (1<<WGM30);
     c04:	eb e8       	ldi	r30, 0x8B	; 139
     c06:	f0 e0       	ldi	r31, 0x00	; 0
     c08:	80 81       	ld	r24, Z
     c0a:	83 60       	ori	r24, 0x03	; 3
     c0c:	80 83       	st	Z, r24
				break;
     c0e:	74 c0       	rjmp	.+232    	; 0xcf8 <TIMER_COUNTER3enable+0x146>
			case 4:	// CTC
				TIMER_COUNTER3B_CONTROL_REGISTER|=(1<<WGM32);
     c10:	ea e8       	ldi	r30, 0x8A	; 138
     c12:	f0 e0       	ldi	r31, 0x00	; 0
     c14:	80 81       	ld	r24, Z
     c16:	88 60       	ori	r24, 0x08	; 8
     c18:	80 83       	st	Z, r24
				break;
     c1a:	6e c0       	rjmp	.+220    	; 0xcf8 <TIMER_COUNTER3enable+0x146>
			case 5:	// Fast PWM, 8-bit
				TIMER_COUNTER3A_CONTROL_REGISTER|=(1<<WGM30);
     c1c:	eb e8       	ldi	r30, 0x8B	; 139
     c1e:	f0 e0       	ldi	r31, 0x00	; 0
     c20:	80 81       	ld	r24, Z
     c22:	81 60       	ori	r24, 0x01	; 1
     c24:	80 83       	st	Z, r24
				TIMER_COUNTER3B_CONTROL_REGISTER|=(1<<WGM32);
     c26:	ea e8       	ldi	r30, 0x8A	; 138
     c28:	f0 e0       	ldi	r31, 0x00	; 0
     c2a:	80 81       	ld	r24, Z
     c2c:	88 60       	ori	r24, 0x08	; 8
     c2e:	80 83       	st	Z, r24
				break;
     c30:	63 c0       	rjmp	.+198    	; 0xcf8 <TIMER_COUNTER3enable+0x146>
			case 6:	// Fast PWM, 9-bit
				TIMER_COUNTER3A_CONTROL_REGISTER|=(1<<WGM31);
     c32:	eb e8       	ldi	r30, 0x8B	; 139
     c34:	f0 e0       	ldi	r31, 0x00	; 0
     c36:	80 81       	ld	r24, Z
     c38:	82 60       	ori	r24, 0x02	; 2
     c3a:	80 83       	st	Z, r24
				TIMER_COUNTER3B_CONTROL_REGISTER|=(1<<WGM32);
     c3c:	ea e8       	ldi	r30, 0x8A	; 138
     c3e:	f0 e0       	ldi	r31, 0x00	; 0
     c40:	80 81       	ld	r24, Z
     c42:	88 60       	ori	r24, 0x08	; 8
     c44:	80 83       	st	Z, r24
				break;
     c46:	58 c0       	rjmp	.+176    	; 0xcf8 <TIMER_COUNTER3enable+0x146>
			case 7:	// Fast PWM, 10-bit
				TIMER_COUNTER3A_CONTROL_REGISTER|=(1<<WGM31) | (1<<WGM30);
     c48:	eb e8       	ldi	r30, 0x8B	; 139
     c4a:	f0 e0       	ldi	r31, 0x00	; 0
     c4c:	80 81       	ld	r24, Z
     c4e:	83 60       	ori	r24, 0x03	; 3
     c50:	80 83       	st	Z, r24
				TIMER_COUNTER3B_CONTROL_REGISTER|=(1<<WGM32);
     c52:	ea e8       	ldi	r30, 0x8A	; 138
     c54:	f0 e0       	ldi	r31, 0x00	; 0
     c56:	80 81       	ld	r24, Z
     c58:	88 60       	ori	r24, 0x08	; 8
     c5a:	80 83       	st	Z, r24
				break;
     c5c:	4d c0       	rjmp	.+154    	; 0xcf8 <TIMER_COUNTER3enable+0x146>
			case 8:	// PWM, Phase and Frequency Correct
				TIMER_COUNTER3B_CONTROL_REGISTER|=(1<<WGM33);
     c5e:	ea e8       	ldi	r30, 0x8A	; 138
     c60:	f0 e0       	ldi	r31, 0x00	; 0
     c62:	80 81       	ld	r24, Z
     c64:	80 61       	ori	r24, 0x10	; 16
     c66:	80 83       	st	Z, r24
				break;
     c68:	47 c0       	rjmp	.+142    	; 0xcf8 <TIMER_COUNTER3enable+0x146>
			case 9:	// PWM, Phase and Frequency Correct
				TIMER_COUNTER3A_CONTROL_REGISTER|=(1<<WGM30);
     c6a:	eb e8       	ldi	r30, 0x8B	; 139
     c6c:	f0 e0       	ldi	r31, 0x00	; 0
     c6e:	80 81       	ld	r24, Z
     c70:	81 60       	ori	r24, 0x01	; 1
     c72:	80 83       	st	Z, r24
				TIMER_COUNTER3B_CONTROL_REGISTER|=(1<<WGM33);
     c74:	ea e8       	ldi	r30, 0x8A	; 138
     c76:	f0 e0       	ldi	r31, 0x00	; 0
     c78:	80 81       	ld	r24, Z
     c7a:	80 61       	ori	r24, 0x10	; 16
     c7c:	80 83       	st	Z, r24
				break;
     c7e:	3c c0       	rjmp	.+120    	; 0xcf8 <TIMER_COUNTER3enable+0x146>
			case 10: // PWM, Phase Correct
				TIMER_COUNTER3A_CONTROL_REGISTER|=(1<<WGM31);
     c80:	eb e8       	ldi	r30, 0x8B	; 139
     c82:	f0 e0       	ldi	r31, 0x00	; 0
     c84:	80 81       	ld	r24, Z
     c86:	82 60       	ori	r24, 0x02	; 2
     c88:	80 83       	st	Z, r24
				TIMER_COUNTER3B_CONTROL_REGISTER|=(1<<WGM33);
     c8a:	ea e8       	ldi	r30, 0x8A	; 138
     c8c:	f0 e0       	ldi	r31, 0x00	; 0
     c8e:	80 81       	ld	r24, Z
     c90:	80 61       	ori	r24, 0x10	; 16
     c92:	80 83       	st	Z, r24
				break;
     c94:	31 c0       	rjmp	.+98     	; 0xcf8 <TIMER_COUNTER3enable+0x146>
			case 11: // PWM, Phase Correct
				TIMER_COUNTER3A_CONTROL_REGISTER|=(1<<WGM31) | (1<<WGM30);
     c96:	eb e8       	ldi	r30, 0x8B	; 139
     c98:	f0 e0       	ldi	r31, 0x00	; 0
     c9a:	80 81       	ld	r24, Z
     c9c:	83 60       	ori	r24, 0x03	; 3
     c9e:	80 83       	st	Z, r24
				TIMER_COUNTER3B_CONTROL_REGISTER|=(1<<WGM33);
     ca0:	ea e8       	ldi	r30, 0x8A	; 138
     ca2:	f0 e0       	ldi	r31, 0x00	; 0
     ca4:	80 81       	ld	r24, Z
     ca6:	80 61       	ori	r24, 0x10	; 16
     ca8:	80 83       	st	Z, r24
				break;
     caa:	26 c0       	rjmp	.+76     	; 0xcf8 <TIMER_COUNTER3enable+0x146>
			case 12: // CTC
				TIMER_COUNTER3B_CONTROL_REGISTER|=(1<<WGM33) | (1<<WGM32);
     cac:	ea e8       	ldi	r30, 0x8A	; 138
     cae:	f0 e0       	ldi	r31, 0x00	; 0
     cb0:	80 81       	ld	r24, Z
     cb2:	88 61       	ori	r24, 0x18	; 24
     cb4:	80 83       	st	Z, r24
				break;
     cb6:	20 c0       	rjmp	.+64     	; 0xcf8 <TIMER_COUNTER3enable+0x146>
			case 13: // (Reserved)
				TIMER_COUNTER3A_CONTROL_REGISTER|=(1<<WGM30);
     cb8:	eb e8       	ldi	r30, 0x8B	; 139
     cba:	f0 e0       	ldi	r31, 0x00	; 0
     cbc:	80 81       	ld	r24, Z
     cbe:	81 60       	ori	r24, 0x01	; 1
     cc0:	80 83       	st	Z, r24
				TIMER_COUNTER3B_CONTROL_REGISTER|=(1<<WGM33) | (1<<WGM32);
     cc2:	ea e8       	ldi	r30, 0x8A	; 138
     cc4:	f0 e0       	ldi	r31, 0x00	; 0
     cc6:	80 81       	ld	r24, Z
     cc8:	88 61       	ori	r24, 0x18	; 24
     cca:	80 83       	st	Z, r24
				break;
     ccc:	15 c0       	rjmp	.+42     	; 0xcf8 <TIMER_COUNTER3enable+0x146>
			case 14: // Fast PWM
				TIMER_COUNTER3A_CONTROL_REGISTER|=(1<<WGM31);
     cce:	eb e8       	ldi	r30, 0x8B	; 139
     cd0:	f0 e0       	ldi	r31, 0x00	; 0
     cd2:	80 81       	ld	r24, Z
     cd4:	82 60       	ori	r24, 0x02	; 2
     cd6:	80 83       	st	Z, r24
				TIMER_COUNTER3B_CONTROL_REGISTER|=(1<<WGM33) | (1<<WGM32);
     cd8:	ea e8       	ldi	r30, 0x8A	; 138
     cda:	f0 e0       	ldi	r31, 0x00	; 0
     cdc:	80 81       	ld	r24, Z
     cde:	88 61       	ori	r24, 0x18	; 24
     ce0:	80 83       	st	Z, r24
				break;
     ce2:	0a c0       	rjmp	.+20     	; 0xcf8 <TIMER_COUNTER3enable+0x146>
			case 15: // Fast PWM
				TIMER_COUNTER3A_CONTROL_REGISTER|=(1<<WGM31) | (1<<WGM30);
     ce4:	eb e8       	ldi	r30, 0x8B	; 139
     ce6:	f0 e0       	ldi	r31, 0x00	; 0
     ce8:	80 81       	ld	r24, Z
     cea:	83 60       	ori	r24, 0x03	; 3
     cec:	80 83       	st	Z, r24
				TIMER_COUNTER3B_CONTROL_REGISTER|=(1<<WGM33) | (1<<WGM32);
     cee:	ea e8       	ldi	r30, 0x8A	; 138
     cf0:	f0 e0       	ldi	r31, 0x00	; 0
     cf2:	80 81       	ld	r24, Z
     cf4:	88 61       	ori	r24, 0x18	; 24
     cf6:	80 83       	st	Z, r24
				break;
			default:
				break;
		}
		TIMER_COUNTER3A_CONTROL_REGISTER&=~((3<<COM3A0) | (3<<COM3B0)| (3<<COM3C0));
     cf8:	eb e8       	ldi	r30, 0x8B	; 139
     cfa:	f0 e0       	ldi	r31, 0x00	; 0
     cfc:	80 81       	ld	r24, Z
     cfe:	83 70       	andi	r24, 0x03	; 3
     d00:	80 83       	st	Z, r24
		EXTENDED_TIMER_COUNTER_INTERRUPT_MASK_REGISTER&=~((1<<TICIE3) | (1<<OCIE3A) | (1<<OCIE3B) | (1<<TOIE3) | (1<<OCIE3C));
     d02:	ed e7       	ldi	r30, 0x7D	; 125
     d04:	f0 e0       	ldi	r31, 0x00	; 0
     d06:	80 81       	ld	r24, Z
     d08:	81 7c       	andi	r24, 0xC1	; 193
     d0a:	80 83       	st	Z, r24
		switch(interrupt){
     d0c:	50 e0       	ldi	r21, 0x00	; 0
     d0e:	fa 01       	movw	r30, r20
     d10:	31 97       	sbiw	r30, 0x01	; 1
     d12:	ec 30       	cpi	r30, 0x0C	; 12
     d14:	f1 05       	cpc	r31, r1
     d16:	08 f0       	brcs	.+2      	; 0xd1a <TIMER_COUNTER3enable+0x168>
     d18:	49 c0       	rjmp	.+146    	; 0xdac <TIMER_COUNTER3enable+0x1fa>
     d1a:	e0 58       	subi	r30, 0x80	; 128
     d1c:	ff 4f       	sbci	r31, 0xFF	; 255
     d1e:	0c 94 5c 19 	jmp	0x32b8	; 0x32b8 <__tablejump2__>
			case 0:
				break;
			case 1:
				EXTENDED_TIMER_COUNTER_INTERRUPT_MASK_REGISTER=(1<<TOIE3);
     d22:	84 e0       	ldi	r24, 0x04	; 4
     d24:	80 93 7d 00 	sts	0x007D, r24	; 0x80007d <__TEXT_REGION_LENGTH__+0x7e007d>
				break;
     d28:	41 c0       	rjmp	.+130    	; 0xdac <TIMER_COUNTER3enable+0x1fa>
			case 2:
				EXTENDED_TIMER_COUNTER_INTERRUPT_MASK_REGISTER|=(1<<OCIE3A);
     d2a:	ed e7       	ldi	r30, 0x7D	; 125
     d2c:	f0 e0       	ldi	r31, 0x00	; 0
     d2e:	80 81       	ld	r24, Z
     d30:	80 61       	ori	r24, 0x10	; 16
     d32:	80 83       	st	Z, r24
				break;
     d34:	3b c0       	rjmp	.+118    	; 0xdac <TIMER_COUNTER3enable+0x1fa>
			case 3:
				EXTENDED_TIMER_COUNTER_INTERRUPT_MASK_REGISTER|=(1<<OCIE3B);
     d36:	ed e7       	ldi	r30, 0x7D	; 125
     d38:	f0 e0       	ldi	r31, 0x00	; 0
     d3a:	80 81       	ld	r24, Z
     d3c:	88 60       	ori	r24, 0x08	; 8
     d3e:	80 83       	st	Z, r24
				break;
     d40:	35 c0       	rjmp	.+106    	; 0xdac <TIMER_COUNTER3enable+0x1fa>
			case 4:
				EXTENDED_TIMER_COUNTER_INTERRUPT_MASK_REGISTER|=(1<<OCIE3C);
     d42:	ed e7       	ldi	r30, 0x7D	; 125
     d44:	f0 e0       	ldi	r31, 0x00	; 0
     d46:	80 81       	ld	r24, Z
     d48:	82 60       	ori	r24, 0x02	; 2
     d4a:	80 83       	st	Z, r24
				break;
     d4c:	2f c0       	rjmp	.+94     	; 0xdac <TIMER_COUNTER3enable+0x1fa>
			case 5:
				EXTENDED_TIMER_COUNTER_INTERRUPT_MASK_REGISTER|=(1<<TICIE3);
     d4e:	ed e7       	ldi	r30, 0x7D	; 125
     d50:	f0 e0       	ldi	r31, 0x00	; 0
     d52:	80 81       	ld	r24, Z
     d54:	80 62       	ori	r24, 0x20	; 32
     d56:	80 83       	st	Z, r24
				break;
     d58:	29 c0       	rjmp	.+82     	; 0xdac <TIMER_COUNTER3enable+0x1fa>
			case 6:
				EXTENDED_TIMER_COUNTER_INTERRUPT_MASK_REGISTER|=(1<<OCIE3A) | (1<<TOIE3);
     d5a:	ed e7       	ldi	r30, 0x7D	; 125
     d5c:	f0 e0       	ldi	r31, 0x00	; 0
     d5e:	80 81       	ld	r24, Z
     d60:	84 61       	ori	r24, 0x14	; 20
     d62:	80 83       	st	Z, r24
				break;
     d64:	23 c0       	rjmp	.+70     	; 0xdac <TIMER_COUNTER3enable+0x1fa>
			case 7:
				EXTENDED_TIMER_COUNTER_INTERRUPT_MASK_REGISTER|=(1<<OCIE3B) | (1<<TOIE3);
     d66:	ed e7       	ldi	r30, 0x7D	; 125
     d68:	f0 e0       	ldi	r31, 0x00	; 0
     d6a:	80 81       	ld	r24, Z
     d6c:	8c 60       	ori	r24, 0x0C	; 12
     d6e:	80 83       	st	Z, r24
				break;
     d70:	1d c0       	rjmp	.+58     	; 0xdac <TIMER_COUNTER3enable+0x1fa>
			case 8:
				EXTENDED_TIMER_COUNTER_INTERRUPT_MASK_REGISTER|=(1<<TOIE3) | (1<<OCIE3C);
     d72:	ed e7       	ldi	r30, 0x7D	; 125
     d74:	f0 e0       	ldi	r31, 0x00	; 0
     d76:	80 81       	ld	r24, Z
     d78:	86 60       	ori	r24, 0x06	; 6
     d7a:	80 83       	st	Z, r24
				break;
     d7c:	17 c0       	rjmp	.+46     	; 0xdac <TIMER_COUNTER3enable+0x1fa>
			case 9:
				EXTENDED_TIMER_COUNTER_INTERRUPT_MASK_REGISTER|=(1<<TICIE3) | (1<<TOIE3);
     d7e:	ed e7       	ldi	r30, 0x7D	; 125
     d80:	f0 e0       	ldi	r31, 0x00	; 0
     d82:	80 81       	ld	r24, Z
     d84:	84 62       	ori	r24, 0x24	; 36
     d86:	80 83       	st	Z, r24
				break;
     d88:	11 c0       	rjmp	.+34     	; 0xdac <TIMER_COUNTER3enable+0x1fa>
			case 10:
				EXTENDED_TIMER_COUNTER_INTERRUPT_MASK_REGISTER|=(1<<OCIE3A) | (1<<OCIE3B) | (1<<TOIE3);
     d8a:	ed e7       	ldi	r30, 0x7D	; 125
     d8c:	f0 e0       	ldi	r31, 0x00	; 0
     d8e:	80 81       	ld	r24, Z
     d90:	8c 61       	ori	r24, 0x1C	; 28
     d92:	80 83       	st	Z, r24
				break;
     d94:	0b c0       	rjmp	.+22     	; 0xdac <TIMER_COUNTER3enable+0x1fa>
			case 11:
				EXTENDED_TIMER_COUNTER_INTERRUPT_MASK_REGISTER|=(1<<OCIE3A) | (1<<OCIE3B) | (1<<TOIE3) | (1<<OCIE3C);
     d96:	ed e7       	ldi	r30, 0x7D	; 125
     d98:	f0 e0       	ldi	r31, 0x00	; 0
     d9a:	80 81       	ld	r24, Z
     d9c:	8e 61       	ori	r24, 0x1E	; 30
     d9e:	80 83       	st	Z, r24
				break;
     da0:	05 c0       	rjmp	.+10     	; 0xdac <TIMER_COUNTER3enable+0x1fa>
			case 12:
				EXTENDED_TIMER_COUNTER_INTERRUPT_MASK_REGISTER|=(1<<OCIE3A) | (1<<OCIE3B) | (1<<OCIE3C);
     da2:	ed e7       	ldi	r30, 0x7D	; 125
     da4:	f0 e0       	ldi	r31, 0x00	; 0
     da6:	80 81       	ld	r24, Z
     da8:	8a 61       	ori	r24, 0x1A	; 26
     daa:	80 83       	st	Z, r24
		timer3.compareB=TIMER_COUNTER3_compareB;
		timer3.compareC=TIMER_COUNTER3_compareC;
		timer3.start=TIMER_COUNTER3_start;
		timer3.stop=TIMER_COUNTER3_stop;
		//
		return timer3;
     dac:	87 e7       	ldi	r24, 0x77	; 119
     dae:	94 e0       	ldi	r25, 0x04	; 4
     db0:	11 96       	adiw	r26, 0x01	; 1
     db2:	9c 93       	st	X, r25
     db4:	8e 93       	st	-X, r24
     db6:	82 e9       	ldi	r24, 0x92	; 146
     db8:	94 e0       	ldi	r25, 0x04	; 4
     dba:	13 96       	adiw	r26, 0x03	; 3
     dbc:	9c 93       	st	X, r25
     dbe:	8e 93       	st	-X, r24
     dc0:	12 97       	sbiw	r26, 0x02	; 2
     dc2:	8d ea       	ldi	r24, 0xAD	; 173
     dc4:	94 e0       	ldi	r25, 0x04	; 4
     dc6:	15 96       	adiw	r26, 0x05	; 5
     dc8:	9c 93       	st	X, r25
     dca:	8e 93       	st	-X, r24
     dcc:	14 97       	sbiw	r26, 0x04	; 4
     dce:	88 ec       	ldi	r24, 0xC8	; 200
     dd0:	94 e0       	ldi	r25, 0x04	; 4
     dd2:	17 96       	adiw	r26, 0x07	; 7
     dd4:	9c 93       	st	X, r25
     dd6:	8e 93       	st	-X, r24
     dd8:	16 97       	sbiw	r26, 0x06	; 6
     dda:	8d ec       	ldi	r24, 0xCD	; 205
     ddc:	94 e0       	ldi	r25, 0x04	; 4
     dde:	19 96       	adiw	r26, 0x09	; 9
     de0:	9c 93       	st	X, r25
     de2:	8e 93       	st	-X, r24
     de4:	18 97       	sbiw	r26, 0x08	; 8
     de6:	82 ed       	ldi	r24, 0xD2	; 210
     de8:	94 e0       	ldi	r25, 0x04	; 4
     dea:	1b 96       	adiw	r26, 0x0b	; 11
     dec:	9c 93       	st	X, r25
     dee:	8e 93       	st	-X, r24
     df0:	1a 97       	sbiw	r26, 0x0a	; 10
     df2:	8c e1       	ldi	r24, 0x1C	; 28
     df4:	94 e0       	ldi	r25, 0x04	; 4
     df6:	1d 96       	adiw	r26, 0x0d	; 13
     df8:	9c 93       	st	X, r25
     dfa:	8e 93       	st	-X, r24
     dfc:	1c 97       	sbiw	r26, 0x0c	; 12
     dfe:	87 ed       	ldi	r24, 0xD7	; 215
     e00:	94 e0       	ldi	r25, 0x04	; 4
     e02:	1f 96       	adiw	r26, 0x0f	; 15
     e04:	9c 93       	st	X, r25
     e06:	8e 93       	st	-X, r24
     e08:	1e 97       	sbiw	r26, 0x0e	; 14
	}
     e0a:	cd 01       	movw	r24, r26
     e0c:	df 91       	pop	r29
     e0e:	cf 91       	pop	r28
     e10:	1f 91       	pop	r17
     e12:	0f 91       	pop	r16
     e14:	08 95       	ret

00000e16 <__vector_10>:

/*
** interrupt
*/
// So that main will not freeze when not defined, but rather exclude.
ISR(TIMER2_OVF_vect){ }
     e16:	1f 92       	push	r1
     e18:	0f 92       	push	r0
     e1a:	0f b6       	in	r0, 0x3f	; 63
     e1c:	0f 92       	push	r0
     e1e:	11 24       	eor	r1, r1
     e20:	0f 90       	pop	r0
     e22:	0f be       	out	0x3f, r0	; 63
     e24:	0f 90       	pop	r0
     e26:	1f 90       	pop	r1
     e28:	18 95       	reti

00000e2a <__vector_11>:
ISR(TIMER1_CAPT_vect){ }
     e2a:	1f 92       	push	r1
     e2c:	0f 92       	push	r0
     e2e:	0f b6       	in	r0, 0x3f	; 63
     e30:	0f 92       	push	r0
     e32:	11 24       	eor	r1, r1
     e34:	0f 90       	pop	r0
     e36:	0f be       	out	0x3f, r0	; 63
     e38:	0f 90       	pop	r0
     e3a:	1f 90       	pop	r1
     e3c:	18 95       	reti

00000e3e <__vector_12>:
ISR(TIMER1_COMPA_vect){ }
     e3e:	1f 92       	push	r1
     e40:	0f 92       	push	r0
     e42:	0f b6       	in	r0, 0x3f	; 63
     e44:	0f 92       	push	r0
     e46:	11 24       	eor	r1, r1
     e48:	0f 90       	pop	r0
     e4a:	0f be       	out	0x3f, r0	; 63
     e4c:	0f 90       	pop	r0
     e4e:	1f 90       	pop	r1
     e50:	18 95       	reti

00000e52 <__vector_13>:
ISR(TIMER1_COMPB_vect){ }
     e52:	1f 92       	push	r1
     e54:	0f 92       	push	r0
     e56:	0f b6       	in	r0, 0x3f	; 63
     e58:	0f 92       	push	r0
     e5a:	11 24       	eor	r1, r1
     e5c:	0f 90       	pop	r0
     e5e:	0f be       	out	0x3f, r0	; 63
     e60:	0f 90       	pop	r0
     e62:	1f 90       	pop	r1
     e64:	18 95       	reti

00000e66 <__vector_14>:
ISR(TIMER1_OVF_vect){ }
     e66:	1f 92       	push	r1
     e68:	0f 92       	push	r0
     e6a:	0f b6       	in	r0, 0x3f	; 63
     e6c:	0f 92       	push	r0
     e6e:	11 24       	eor	r1, r1
     e70:	0f 90       	pop	r0
     e72:	0f be       	out	0x3f, r0	; 63
     e74:	0f 90       	pop	r0
     e76:	1f 90       	pop	r1
     e78:	18 95       	reti

00000e7a <__vector_15>:
ISR(TIMER0_COMP_vect){ }
     e7a:	1f 92       	push	r1
     e7c:	0f 92       	push	r0
     e7e:	0f b6       	in	r0, 0x3f	; 63
     e80:	0f 92       	push	r0
     e82:	11 24       	eor	r1, r1
     e84:	0f 90       	pop	r0
     e86:	0f be       	out	0x3f, r0	; 63
     e88:	0f 90       	pop	r0
     e8a:	1f 90       	pop	r1
     e8c:	18 95       	reti

00000e8e <__vector_16>:
ISR(TIMER0_OVF_vect){ }
     e8e:	1f 92       	push	r1
     e90:	0f 92       	push	r0
     e92:	0f b6       	in	r0, 0x3f	; 63
     e94:	0f 92       	push	r0
     e96:	11 24       	eor	r1, r1
     e98:	0f 90       	pop	r0
     e9a:	0f be       	out	0x3f, r0	; 63
     e9c:	0f 90       	pop	r0
     e9e:	1f 90       	pop	r1
     ea0:	18 95       	reti

00000ea2 <__vector_24>:
ISR(TIMER1_COMPC_vect){ }
     ea2:	1f 92       	push	r1
     ea4:	0f 92       	push	r0
     ea6:	0f b6       	in	r0, 0x3f	; 63
     ea8:	0f 92       	push	r0
     eaa:	11 24       	eor	r1, r1
     eac:	0f 90       	pop	r0
     eae:	0f be       	out	0x3f, r0	; 63
     eb0:	0f 90       	pop	r0
     eb2:	1f 90       	pop	r1
     eb4:	18 95       	reti

00000eb6 <__vector_25>:
ISR(TIMER3_CAPT_vect){ }
     eb6:	1f 92       	push	r1
     eb8:	0f 92       	push	r0
     eba:	0f b6       	in	r0, 0x3f	; 63
     ebc:	0f 92       	push	r0
     ebe:	11 24       	eor	r1, r1
     ec0:	0f 90       	pop	r0
     ec2:	0f be       	out	0x3f, r0	; 63
     ec4:	0f 90       	pop	r0
     ec6:	1f 90       	pop	r1
     ec8:	18 95       	reti

00000eca <__vector_26>:
ISR(TIMER3_COMPA_vect){ }
     eca:	1f 92       	push	r1
     ecc:	0f 92       	push	r0
     ece:	0f b6       	in	r0, 0x3f	; 63
     ed0:	0f 92       	push	r0
     ed2:	11 24       	eor	r1, r1
     ed4:	0f 90       	pop	r0
     ed6:	0f be       	out	0x3f, r0	; 63
     ed8:	0f 90       	pop	r0
     eda:	1f 90       	pop	r1
     edc:	18 95       	reti

00000ede <__vector_27>:
ISR(TIMER3_COMPB_vect){ }
     ede:	1f 92       	push	r1
     ee0:	0f 92       	push	r0
     ee2:	0f b6       	in	r0, 0x3f	; 63
     ee4:	0f 92       	push	r0
     ee6:	11 24       	eor	r1, r1
     ee8:	0f 90       	pop	r0
     eea:	0f be       	out	0x3f, r0	; 63
     eec:	0f 90       	pop	r0
     eee:	1f 90       	pop	r1
     ef0:	18 95       	reti

00000ef2 <__vector_28>:
ISR(TIMER3_COMPC_vect){ }
     ef2:	1f 92       	push	r1
     ef4:	0f 92       	push	r0
     ef6:	0f b6       	in	r0, 0x3f	; 63
     ef8:	0f 92       	push	r0
     efa:	11 24       	eor	r1, r1
     efc:	0f 90       	pop	r0
     efe:	0f be       	out	0x3f, r0	; 63
     f00:	0f 90       	pop	r0
     f02:	1f 90       	pop	r1
     f04:	18 95       	reti

00000f06 <I2Cenable>:
}
unsigned char twi_status(void){
	unsigned char status;
	status = TWI_STATUS_REGISTER & TWI_STATUS_MASK;
	return status;
}
     f06:	1f 93       	push	r17
     f08:	cf 93       	push	r28
     f0a:	df 93       	push	r29
     f0c:	ec 01       	movw	r28, r24
     f0e:	1f b7       	in	r17, 0x3f	; 63
     f10:	8f b7       	in	r24, 0x3f	; 63
     f12:	8f 77       	andi	r24, 0x7F	; 127
     f14:	8f bf       	out	0x3f, r24	; 63
     f16:	16 16       	cp	r1, r22
     f18:	3c f4       	brge	.+14     	; 0xf28 <I2Cenable+0x22>
     f1a:	60 93 f5 01 	sts	0x01F5, r22	; 0x8001f5 <twi_chip_id>
     f1e:	66 0f       	add	r22, r22
     f20:	61 60       	ori	r22, 0x01	; 1
     f22:	60 93 72 00 	sts	0x0072, r22	; 0x800072 <__TEXT_REGION_LENGTH__+0x7e0072>
     f26:	03 c0       	rjmp	.+6      	; 0xf2e <I2Cenable+0x28>
     f28:	82 e0       	ldi	r24, 0x02	; 2
     f2a:	80 93 f5 01 	sts	0x01F5, r24	; 0x8001f5 <twi_chip_id>
     f2e:	81 b3       	in	r24, 0x11	; 17
     f30:	83 60       	ori	r24, 0x03	; 3
     f32:	81 bb       	out	0x11, r24	; 17
     f34:	82 b3       	in	r24, 0x12	; 18
     f36:	83 60       	ori	r24, 0x03	; 3
     f38:	82 bb       	out	0x12, r24	; 18
     f3a:	44 30       	cpi	r20, 0x04	; 4
     f3c:	79 f0       	breq	.+30     	; 0xf5c <I2Cenable+0x56>
     f3e:	18 f4       	brcc	.+6      	; 0xf46 <I2Cenable+0x40>
     f40:	41 30       	cpi	r20, 0x01	; 1
     f42:	31 f0       	breq	.+12     	; 0xf50 <I2Cenable+0x4a>
     f44:	1d c0       	rjmp	.+58     	; 0xf80 <I2Cenable+0x7a>
     f46:	40 31       	cpi	r20, 0x10	; 16
     f48:	79 f0       	breq	.+30     	; 0xf68 <I2Cenable+0x62>
     f4a:	40 34       	cpi	r20, 0x40	; 64
     f4c:	99 f0       	breq	.+38     	; 0xf74 <I2Cenable+0x6e>
     f4e:	18 c0       	rjmp	.+48     	; 0xf80 <I2Cenable+0x7a>
     f50:	e1 e7       	ldi	r30, 0x71	; 113
     f52:	f0 e0       	ldi	r31, 0x00	; 0
     f54:	80 81       	ld	r24, Z
     f56:	8c 7f       	andi	r24, 0xFC	; 252
     f58:	80 83       	st	Z, r24
     f5a:	18 c0       	rjmp	.+48     	; 0xf8c <I2Cenable+0x86>
     f5c:	e1 e7       	ldi	r30, 0x71	; 113
     f5e:	f0 e0       	ldi	r31, 0x00	; 0
     f60:	80 81       	ld	r24, Z
     f62:	81 60       	ori	r24, 0x01	; 1
     f64:	80 83       	st	Z, r24
     f66:	12 c0       	rjmp	.+36     	; 0xf8c <I2Cenable+0x86>
     f68:	e1 e7       	ldi	r30, 0x71	; 113
     f6a:	f0 e0       	ldi	r31, 0x00	; 0
     f6c:	80 81       	ld	r24, Z
     f6e:	82 60       	ori	r24, 0x02	; 2
     f70:	80 83       	st	Z, r24
     f72:	0c c0       	rjmp	.+24     	; 0xf8c <I2Cenable+0x86>
     f74:	e1 e7       	ldi	r30, 0x71	; 113
     f76:	f0 e0       	ldi	r31, 0x00	; 0
     f78:	80 81       	ld	r24, Z
     f7a:	83 60       	ori	r24, 0x03	; 3
     f7c:	80 83       	st	Z, r24
     f7e:	06 c0       	rjmp	.+12     	; 0xf8c <I2Cenable+0x86>
     f80:	e1 e7       	ldi	r30, 0x71	; 113
     f82:	f0 e0       	ldi	r31, 0x00	; 0
     f84:	80 81       	ld	r24, Z
     f86:	8c 7f       	andi	r24, 0xFC	; 252
     f88:	80 83       	st	Z, r24
     f8a:	41 e0       	ldi	r20, 0x01	; 1
     f8c:	24 2f       	mov	r18, r20
     f8e:	30 e0       	ldi	r19, 0x00	; 0
     f90:	22 0f       	add	r18, r18
     f92:	33 1f       	adc	r19, r19
     f94:	03 2e       	mov	r0, r19
     f96:	00 0c       	add	r0, r0
     f98:	44 0b       	sbc	r20, r20
     f9a:	55 0b       	sbc	r21, r21
     f9c:	60 e9       	ldi	r22, 0x90	; 144
     f9e:	70 e0       	ldi	r23, 0x00	; 0
     fa0:	80 e0       	ldi	r24, 0x00	; 0
     fa2:	90 e0       	ldi	r25, 0x00	; 0
     fa4:	0e 94 1e 19 	call	0x323c	; 0x323c <__udivmodsi4>
     fa8:	20 93 70 00 	sts	0x0070, r18	; 0x800070 <__TEXT_REGION_LENGTH__+0x7e0070>
     fac:	1f bf       	out	0x3f, r17	; 63
     fae:	8f b7       	in	r24, 0x3f	; 63
     fb0:	80 68       	ori	r24, 0x80	; 128
     fb2:	8f bf       	out	0x3f, r24	; 63
     fb4:	8f e3       	ldi	r24, 0x3F	; 63
     fb6:	98 e0       	ldi	r25, 0x08	; 8
     fb8:	99 83       	std	Y+1, r25	; 0x01
     fba:	88 83       	st	Y, r24
     fbc:	8f e4       	ldi	r24, 0x4F	; 79
     fbe:	98 e0       	ldi	r25, 0x08	; 8
     fc0:	9b 83       	std	Y+3, r25	; 0x03
     fc2:	8a 83       	std	Y+2, r24	; 0x02
     fc4:	88 e6       	ldi	r24, 0x68	; 104
     fc6:	98 e0       	ldi	r25, 0x08	; 8
     fc8:	9d 83       	std	Y+5, r25	; 0x05
     fca:	8c 83       	std	Y+4, r24	; 0x04
     fcc:	80 e8       	ldi	r24, 0x80	; 128
     fce:	98 e0       	ldi	r25, 0x08	; 8
     fd0:	9f 83       	std	Y+7, r25	; 0x07
     fd2:	8e 83       	std	Y+6, r24	; 0x06
     fd4:	87 e1       	ldi	r24, 0x17	; 23
     fd6:	98 e0       	ldi	r25, 0x08	; 8
     fd8:	99 87       	std	Y+9, r25	; 0x09
     fda:	88 87       	std	Y+8, r24	; 0x08
     fdc:	ce 01       	movw	r24, r28
     fde:	df 91       	pop	r29
     fe0:	cf 91       	pop	r28
     fe2:	1f 91       	pop	r17
     fe4:	08 95       	ret

00000fe6 <twi_transmit>:
     fe6:	81 30       	cpi	r24, 0x01	; 1
     fe8:	61 f0       	breq	.+24     	; 0x1002 <twi_transmit+0x1c>
     fea:	28 f0       	brcs	.+10     	; 0xff6 <twi_transmit+0x10>
     fec:	82 30       	cpi	r24, 0x02	; 2
     fee:	79 f0       	breq	.+30     	; 0x100e <twi_transmit+0x28>
     ff0:	83 30       	cpi	r24, 0x03	; 3
     ff2:	99 f0       	breq	.+38     	; 0x101a <twi_transmit+0x34>
     ff4:	18 c0       	rjmp	.+48     	; 0x1026 <twi_transmit+0x40>
     ff6:	e4 e7       	ldi	r30, 0x74	; 116
     ff8:	f0 e0       	ldi	r31, 0x00	; 0
     ffa:	80 81       	ld	r24, Z
     ffc:	84 6a       	ori	r24, 0xA4	; 164
     ffe:	80 83       	st	Z, r24
    1000:	08 95       	ret
    1002:	e4 e7       	ldi	r30, 0x74	; 116
    1004:	f0 e0       	ldi	r31, 0x00	; 0
    1006:	80 81       	ld	r24, Z
    1008:	84 68       	ori	r24, 0x84	; 132
    100a:	80 83       	st	Z, r24
    100c:	08 95       	ret
    100e:	e4 e7       	ldi	r30, 0x74	; 116
    1010:	f0 e0       	ldi	r31, 0x00	; 0
    1012:	80 81       	ld	r24, Z
    1014:	84 6c       	ori	r24, 0xC4	; 196
    1016:	80 83       	st	Z, r24
    1018:	08 95       	ret
    101a:	e4 e7       	ldi	r30, 0x74	; 116
    101c:	f0 e0       	ldi	r31, 0x00	; 0
    101e:	80 81       	ld	r24, Z
    1020:	84 69       	ori	r24, 0x94	; 148
    1022:	80 83       	st	Z, r24
    1024:	08 95       	ret
    1026:	84 e9       	ldi	r24, 0x94	; 148
    1028:	80 93 74 00 	sts	0x0074, r24	; 0x800074 <__TEXT_REGION_LENGTH__+0x7e0074>
    102c:	08 95       	ret

0000102e <twi_stop>:
    102e:	80 91 71 00 	lds	r24, 0x0071	; 0x800071 <__TEXT_REGION_LENGTH__+0x7e0071>
    1032:	88 7f       	andi	r24, 0xF8	; 248
    1034:	88 33       	cpi	r24, 0x38	; 56
    1036:	51 f0       	breq	.+20     	; 0x104c <twi_stop+0x1e>
    1038:	28 f4       	brcc	.+10     	; 0x1044 <twi_stop+0x16>
    103a:	80 32       	cpi	r24, 0x20	; 32
    103c:	39 f0       	breq	.+14     	; 0x104c <twi_stop+0x1e>
    103e:	80 33       	cpi	r24, 0x30	; 48
    1040:	39 f4       	brne	.+14     	; 0x1050 <twi_stop+0x22>
    1042:	04 c0       	rjmp	.+8      	; 0x104c <twi_stop+0x1e>
    1044:	88 34       	cpi	r24, 0x48	; 72
    1046:	11 f0       	breq	.+4      	; 0x104c <twi_stop+0x1e>
    1048:	88 35       	cpi	r24, 0x58	; 88
    104a:	11 f4       	brne	.+4      	; 0x1050 <twi_stop+0x22>
    104c:	83 e0       	ldi	r24, 0x03	; 3
    104e:	cb df       	rcall	.-106    	; 0xfe6 <twi_transmit>
    1050:	83 e0       	ldi	r24, 0x03	; 3
    1052:	c9 cf       	rjmp	.-110    	; 0xfe6 <twi_transmit>
    1054:	08 95       	ret

00001056 <twi_poll>:
void twi_poll(unsigned int ticks)
{
    1056:	ac 01       	movw	r20, r24
	unsigned int i;
	for(i=0;!(TWI_CONTROL_REGISTER & (1<<TWINT));i++) // polling.
    1058:	80 91 74 00 	lds	r24, 0x0074	; 0x800074 <__TEXT_REGION_LENGTH__+0x7e0074>
    105c:	88 23       	and	r24, r24
    105e:	2c f4       	brge	.+10     	; 0x106a <twi_poll+0x14>
    1060:	08 95       	ret
		if(i > ticks)
    1062:	42 17       	cp	r20, r18
    1064:	53 07       	cpc	r21, r19
    1066:	28 f4       	brcc	.+10     	; 0x1072 <twi_poll+0x1c>
    1068:	08 95       	ret
	return status;
}
void twi_poll(unsigned int ticks)
{
	unsigned int i;
	for(i=0;!(TWI_CONTROL_REGISTER & (1<<TWINT));i++) // polling.
    106a:	20 e0       	ldi	r18, 0x00	; 0
    106c:	30 e0       	ldi	r19, 0x00	; 0
    106e:	e4 e7       	ldi	r30, 0x74	; 116
    1070:	f0 e0       	ldi	r31, 0x00	; 0
    1072:	2f 5f       	subi	r18, 0xFF	; 255
    1074:	3f 4f       	sbci	r19, 0xFF	; 255
    1076:	90 81       	ld	r25, Z
    1078:	99 23       	and	r25, r25
    107a:	9c f7       	brge	.-26     	; 0x1062 <twi_poll+0xc>
    107c:	08 95       	ret

0000107e <twi_start>:
		if(i > ticks)
			break;
}
void twi_start(unsigned char mode)
{
	if(mode){
    107e:	88 23       	and	r24, r24
    1080:	41 f0       	breq	.+16     	; 0x1092 <twi_start+0x14>
		TWI_CONTROL_REGISTER = (1<<TWEA) | (1<<TWEN) | (1<<TWIE);
    1082:	e4 e7       	ldi	r30, 0x74	; 116
    1084:	f0 e0       	ldi	r31, 0x00	; 0
    1086:	85 e4       	ldi	r24, 0x45	; 69
    1088:	80 83       	st	Z, r24
		TWI_CONTROL_REGISTER &= ~((1<<TWSTA) | (1<<TWSTO));
    108a:	80 81       	ld	r24, Z
    108c:	8f 7c       	andi	r24, 0xCF	; 207
    108e:	80 83       	st	Z, r24
    1090:	08 95       	ret
	}else{
		twi_transmit(TWI_START_CONDITION);
    1092:	80 e0       	ldi	r24, 0x00	; 0
    1094:	a8 df       	rcall	.-176    	; 0xfe6 <twi_transmit>
		twi_poll(680);
    1096:	88 ea       	ldi	r24, 0xA8	; 168
    1098:	92 e0       	ldi	r25, 0x02	; 2
    109a:	dd cf       	rjmp	.-70     	; 0x1056 <twi_poll>
    109c:	08 95       	ret

0000109e <twi_master_connect>:
			break;
	}
}
unsigned char twi_status(void){
	unsigned char status;
	status = TWI_STATUS_REGISTER & TWI_STATUS_MASK;
    109e:	90 91 71 00 	lds	r25, 0x0071	; 0x800071 <__TEXT_REGION_LENGTH__+0x7e0071>
		twi_poll(680);
	}	
}
void twi_master_connect(unsigned char addr, unsigned char rw)
{
	switch(twi_status()){
    10a2:	98 7f       	andi	r25, 0xF8	; 248
    10a4:	98 30       	cpi	r25, 0x08	; 8
    10a6:	99 f4       	brne	.+38     	; 0x10ce <twi_master_connect+0x30>
		case TWI_SENT_START:
			TWI_CONTROL_REGISTER &= ~(1<<TWSTA);
    10a8:	e4 e7       	ldi	r30, 0x74	; 116
    10aa:	f0 e0       	ldi	r31, 0x00	; 0
    10ac:	90 81       	ld	r25, Z
    10ae:	9f 7d       	andi	r25, 0xDF	; 223
    10b0:	90 83       	st	Z, r25
			if(addr>0 && addr<128){
    10b2:	18 16       	cp	r1, r24
    10b4:	2c f4       	brge	.+10     	; 0x10c0 <twi_master_connect+0x22>
				TWI_DATA_REGISTER=(addr<<TWA0) | rw;
    10b6:	88 0f       	add	r24, r24
    10b8:	86 2b       	or	r24, r22
    10ba:	80 93 73 00 	sts	0x0073, r24	; 0x800073 <__TEXT_REGION_LENGTH__+0x7e0073>
    10be:	02 c0       	rjmp	.+4      	; 0x10c4 <twi_master_connect+0x26>
			}else{
				TWI_DATA_REGISTER=0;
    10c0:	10 92 73 00 	sts	0x0073, r1	; 0x800073 <__TEXT_REGION_LENGTH__+0x7e0073>
			}
			twi_transmit(TWI_DATA_NO_ACK);
    10c4:	81 e0       	ldi	r24, 0x01	; 1
    10c6:	8f df       	rcall	.-226    	; 0xfe6 <twi_transmit>
			twi_poll(680);
    10c8:	88 ea       	ldi	r24, 0xA8	; 168
    10ca:	92 e0       	ldi	r25, 0x02	; 2
    10cc:	c4 cf       	rjmp	.-120    	; 0x1056 <twi_poll>
    10ce:	08 95       	ret

000010d0 <twi_master_write>:
			break;
	}
}
unsigned char twi_status(void){
	unsigned char status;
	status = TWI_STATUS_REGISTER & TWI_STATUS_MASK;
    10d0:	90 91 71 00 	lds	r25, 0x0071	; 0x800071 <__TEXT_REGION_LENGTH__+0x7e0071>
			break;
	}
}
void twi_master_write(unsigned char data)
{
	switch(twi_status()){
    10d4:	98 7f       	andi	r25, 0xF8	; 248
    10d6:	98 31       	cpi	r25, 0x18	; 24
    10d8:	19 f0       	breq	.+6      	; 0x10e0 <twi_master_write+0x10>
    10da:	98 32       	cpi	r25, 0x28	; 40
    10dc:	49 f0       	breq	.+18     	; 0x10f0 <twi_master_write+0x20>
    10de:	08 95       	ret
		case TWI_MASTER_SENT_SLA_W_RECEIVED_ACK:
			TWI_DATA_REGISTER=data; // 8 bit data + ack = 9bit
    10e0:	80 93 73 00 	sts	0x0073, r24	; 0x800073 <__TEXT_REGION_LENGTH__+0x7e0073>
			twi_transmit(TWI_DATA_NO_ACK);
    10e4:	81 e0       	ldi	r24, 0x01	; 1
    10e6:	7f df       	rcall	.-258    	; 0xfe6 <twi_transmit>
			twi_poll(680);
    10e8:	88 ea       	ldi	r24, 0xA8	; 168
    10ea:	92 e0       	ldi	r25, 0x02	; 2
    10ec:	b4 cf       	rjmp	.-152    	; 0x1056 <twi_poll>
			break;
    10ee:	08 95       	ret
		case TWI_MASTER_SENT_DATABYTE_RECEIVED_ACK:
			TWI_DATA_REGISTER=data; // 8 bit data + ack = 9bit
    10f0:	80 93 73 00 	sts	0x0073, r24	; 0x800073 <__TEXT_REGION_LENGTH__+0x7e0073>
			twi_transmit(TWI_DATA_NO_ACK);
    10f4:	81 e0       	ldi	r24, 0x01	; 1
			twi_poll(680);
    10f6:	77 df       	rcall	.-274    	; 0xfe6 <twi_transmit>
    10f8:	88 ea       	ldi	r24, 0xA8	; 168
    10fa:	92 e0       	ldi	r25, 0x02	; 2
    10fc:	ac cf       	rjmp	.-168    	; 0x1056 <twi_poll>
    10fe:	08 95       	ret

00001100 <twi_master_read>:
		default:
			break;
	}					
}
unsigned char twi_master_read(unsigned char request)
{
    1100:	cf 93       	push	r28
    1102:	c8 2f       	mov	r28, r24
			break;
	}
}
unsigned char twi_status(void){
	unsigned char status;
	status = TWI_STATUS_REGISTER & TWI_STATUS_MASK;
    1104:	80 91 71 00 	lds	r24, 0x0071	; 0x800071 <__TEXT_REGION_LENGTH__+0x7e0071>
	}					
}
unsigned char twi_master_read(unsigned char request)
{
	unsigned char data='X';
	switch(twi_status()){
    1108:	88 7f       	andi	r24, 0xF8	; 248
    110a:	80 34       	cpi	r24, 0x40	; 64
    110c:	19 f0       	breq	.+6      	; 0x1114 <twi_master_read+0x14>
    110e:	80 35       	cpi	r24, 0x50	; 80
    1110:	e1 f0       	breq	.+56     	; 0x114a <twi_master_read+0x4a>
    1112:	37 c0       	rjmp	.+110    	; 0x1182 <twi_master_read+0x82>
		case TWI_MASTER_SENT_SLA_R_RECEIVED_ACK:
			switch(request){
    1114:	c1 30       	cpi	r28, 0x01	; 1
    1116:	51 f0       	breq	.+20     	; 0x112c <twi_master_read+0x2c>
    1118:	c2 30       	cpi	r28, 0x02	; 2
    111a:	81 f4       	brne	.+32     	; 0x113c <twi_master_read+0x3c>
				case TWI_DATA_ACK:
					twi_transmit(TWI_DATA_ACK);
    111c:	82 e0       	ldi	r24, 0x02	; 2
    111e:	63 df       	rcall	.-314    	; 0xfe6 <twi_transmit>
					twi_poll(680);
    1120:	88 ea       	ldi	r24, 0xA8	; 168
    1122:	92 e0       	ldi	r25, 0x02	; 2
    1124:	98 df       	rcall	.-208    	; 0x1056 <twi_poll>
					data=TWI_DATA_REGISTER; // 8 bit data + ack = 9bit
    1126:	80 91 73 00 	lds	r24, 0x0073	; 0x800073 <__TEXT_REGION_LENGTH__+0x7e0073>
					break;
				case TWI_DATA_NO_ACK:
					twi_transmit(TWI_DATA_NO_ACK); // last byte to read
    112a:	13 c0       	rjmp	.+38     	; 0x1152 <twi_master_read+0x52>
    112c:	81 e0       	ldi	r24, 0x01	; 1
					twi_poll(680);
    112e:	5b df       	rcall	.-330    	; 0xfe6 <twi_transmit>
    1130:	88 ea       	ldi	r24, 0xA8	; 168
    1132:	92 e0       	ldi	r25, 0x02	; 2
    1134:	90 df       	rcall	.-224    	; 0x1056 <twi_poll>
					data=TWI_DATA_REGISTER; // 8 bit data + ack = 9bit
    1136:	80 91 73 00 	lds	r24, 0x0073	; 0x800073 <__TEXT_REGION_LENGTH__+0x7e0073>
					break;
				default:
					twi_transmit(TWI_DATA_NO_ACK); // last byte to read
    113a:	13 c0       	rjmp	.+38     	; 0x1162 <twi_master_read+0x62>
    113c:	81 e0       	ldi	r24, 0x01	; 1
					twi_poll(680);
    113e:	53 df       	rcall	.-346    	; 0xfe6 <twi_transmit>
    1140:	88 ea       	ldi	r24, 0xA8	; 168
    1142:	92 e0       	ldi	r25, 0x02	; 2
    1144:	88 df       	rcall	.-240    	; 0x1056 <twi_poll>
					data=TWI_DATA_REGISTER; // 8 bit data + ack = 9bit
    1146:	80 91 73 00 	lds	r24, 0x0073	; 0x800073 <__TEXT_REGION_LENGTH__+0x7e0073>
					break;
			}
		case TWI_MASTER_RECEIVED_DATABYTE_SENT_ACK:
			switch(request){
    114a:	c1 30       	cpi	r28, 0x01	; 1
    114c:	51 f0       	breq	.+20     	; 0x1162 <twi_master_read+0x62>
				case TWI_DATA_ACK:
					twi_transmit(TWI_DATA_ACK);
    114e:	c2 30       	cpi	r28, 0x02	; 2
    1150:	81 f4       	brne	.+32     	; 0x1172 <twi_master_read+0x72>
    1152:	82 e0       	ldi	r24, 0x02	; 2
					twi_poll(680);
    1154:	48 df       	rcall	.-368    	; 0xfe6 <twi_transmit>
    1156:	88 ea       	ldi	r24, 0xA8	; 168
    1158:	92 e0       	ldi	r25, 0x02	; 2
					data=TWI_DATA_REGISTER; // 8 bit data + ack = 9bit
    115a:	7d df       	rcall	.-262    	; 0x1056 <twi_poll>
    115c:	80 91 73 00 	lds	r24, 0x0073	; 0x800073 <__TEXT_REGION_LENGTH__+0x7e0073>
					break;
				case TWI_DATA_NO_ACK:
					twi_transmit(TWI_DATA_NO_ACK); // last byte to read
    1160:	11 c0       	rjmp	.+34     	; 0x1184 <twi_master_read+0x84>
    1162:	81 e0       	ldi	r24, 0x01	; 1
					twi_poll(680);
    1164:	40 df       	rcall	.-384    	; 0xfe6 <twi_transmit>
    1166:	88 ea       	ldi	r24, 0xA8	; 168
    1168:	92 e0       	ldi	r25, 0x02	; 2
					data=TWI_DATA_REGISTER; // 8 bit data + ack = 9bit
    116a:	75 df       	rcall	.-278    	; 0x1056 <twi_poll>
    116c:	80 91 73 00 	lds	r24, 0x0073	; 0x800073 <__TEXT_REGION_LENGTH__+0x7e0073>
					break;
				default:
					twi_transmit(TWI_DATA_NO_ACK); // last byte to read
    1170:	09 c0       	rjmp	.+18     	; 0x1184 <twi_master_read+0x84>
    1172:	81 e0       	ldi	r24, 0x01	; 1
    1174:	38 df       	rcall	.-400    	; 0xfe6 <twi_transmit>
					twi_poll(680);
    1176:	88 ea       	ldi	r24, 0xA8	; 168
    1178:	92 e0       	ldi	r25, 0x02	; 2
    117a:	6d df       	rcall	.-294    	; 0x1056 <twi_poll>
    117c:	80 91 73 00 	lds	r24, 0x0073	; 0x800073 <__TEXT_REGION_LENGTH__+0x7e0073>
					data=TWI_DATA_REGISTER; // 8 bit data + ack = 9bit
    1180:	01 c0       	rjmp	.+2      	; 0x1184 <twi_master_read+0x84>
					break;
    1182:	88 e5       	ldi	r24, 0x58	; 88
			break;
	}					
}
unsigned char twi_master_read(unsigned char request)
{
	unsigned char data='X';
    1184:	cf 91       	pop	r28
			}
		default:
			break;
	}
	return data;
}
    1186:	08 95       	ret

00001188 <__vector_33>:
    1188:	1f 92       	push	r1
	}
}
/*
** interrupt
*/
ISR(TWI_vect){ }
    118a:	0f 92       	push	r0
    118c:	0f b6       	in	r0, 0x3f	; 63
    118e:	0f 92       	push	r0
    1190:	11 24       	eor	r1, r1
    1192:	0f 90       	pop	r0
    1194:	0f be       	out	0x3f, r0	; 63
    1196:	0f 90       	pop	r0
    1198:	1f 90       	pop	r1
    119a:	18 95       	reti

0000119c <uart1_getc>:
void uart1_puts_p(const char *progmem_s )
{
    register char c;
    while ( (c = pgm_read_byte(progmem_s++)) ) 
      uart1_putc(c);
}/* uart1_puts_p */
    119c:	90 91 69 01 	lds	r25, 0x0169	; 0x800169 <UART1_RxHead>
    11a0:	80 91 68 01 	lds	r24, 0x0168	; 0x800168 <UART1_RxTail>
    11a4:	98 17       	cp	r25, r24
    11a6:	a1 f0       	breq	.+40     	; 0x11d0 <uart1_getc+0x34>
    11a8:	80 91 68 01 	lds	r24, 0x0168	; 0x800168 <UART1_RxTail>
    11ac:	8f 5f       	subi	r24, 0xFF	; 255
    11ae:	8f 71       	andi	r24, 0x1F	; 31
    11b0:	80 93 68 01 	sts	0x0168, r24	; 0x800168 <UART1_RxTail>
    11b4:	e0 91 68 01 	lds	r30, 0x0168	; 0x800168 <UART1_RxTail>
    11b8:	f0 e0       	ldi	r31, 0x00	; 0
    11ba:	e4 59       	subi	r30, 0x94	; 148
    11bc:	fe 4f       	sbci	r31, 0xFE	; 254
    11be:	20 81       	ld	r18, Z
    11c0:	80 91 67 01 	lds	r24, 0x0167	; 0x800167 <UART1_LastRxError>
    11c4:	90 e0       	ldi	r25, 0x00	; 0
    11c6:	98 2f       	mov	r25, r24
    11c8:	88 27       	eor	r24, r24
    11ca:	82 0f       	add	r24, r18
    11cc:	91 1d       	adc	r25, r1
    11ce:	08 95       	ret
    11d0:	80 e0       	ldi	r24, 0x00	; 0
    11d2:	91 e0       	ldi	r25, 0x01	; 1
    11d4:	08 95       	ret

000011d6 <uart1_available>:
    11d6:	80 91 69 01 	lds	r24, 0x0169	; 0x800169 <UART1_RxHead>
    11da:	20 91 68 01 	lds	r18, 0x0168	; 0x800168 <UART1_RxTail>
    11de:	90 e0       	ldi	r25, 0x00	; 0
    11e0:	4f 96       	adiw	r24, 0x1f	; 31
    11e2:	82 1b       	sub	r24, r18
    11e4:	91 09       	sbc	r25, r1
    11e6:	6f e1       	ldi	r22, 0x1F	; 31
    11e8:	70 e0       	ldi	r23, 0x00	; 0
    11ea:	0c 94 0b 19 	jmp	0x3216	; 0x3216 <__divmodhi4>
    11ee:	08 95       	ret

000011f0 <uart1_flush>:
    11f0:	80 91 68 01 	lds	r24, 0x0168	; 0x800168 <UART1_RxTail>
    11f4:	80 93 69 01 	sts	0x0169, r24	; 0x800169 <UART1_RxHead>
    11f8:	08 95       	ret

000011fa <__vector_18>:
    11fa:	1f 92       	push	r1
    11fc:	0f 92       	push	r0
    11fe:	0f b6       	in	r0, 0x3f	; 63
    1200:	0f 92       	push	r0
    1202:	11 24       	eor	r1, r1
    1204:	0b b6       	in	r0, 0x3b	; 59
    1206:	0f 92       	push	r0
    1208:	8f 93       	push	r24
    120a:	9f 93       	push	r25
    120c:	ef 93       	push	r30
    120e:	ff 93       	push	r31
    1210:	8b b1       	in	r24, 0x0b	; 11
    1212:	9a b1       	in	r25, 0x0a	; 10
    1214:	88 71       	andi	r24, 0x18	; 24
    1216:	80 93 ac 01 	sts	0x01AC, r24	; 0x8001ac <UART_LastRxError>
    121a:	e0 91 ae 01 	lds	r30, 0x01AE	; 0x8001ae <UART_RxHead>
    121e:	ef 5f       	subi	r30, 0xFF	; 255
    1220:	ef 71       	andi	r30, 0x1F	; 31
    1222:	80 91 ad 01 	lds	r24, 0x01AD	; 0x8001ad <UART_RxTail>
    1226:	e8 13       	cpse	r30, r24
    1228:	04 c0       	rjmp	.+8      	; 0x1232 <__vector_18+0x38>
    122a:	82 e0       	ldi	r24, 0x02	; 2
    122c:	80 93 ac 01 	sts	0x01AC, r24	; 0x8001ac <UART_LastRxError>
    1230:	11 c0       	rjmp	.+34     	; 0x1254 <__vector_18+0x5a>
    1232:	9c b1       	in	r25, 0x0c	; 12
    1234:	e0 93 ae 01 	sts	0x01AE, r30	; 0x8001ae <UART_RxHead>
    1238:	80 91 ac 01 	lds	r24, 0x01AC	; 0x8001ac <UART_LastRxError>
    123c:	88 23       	and	r24, r24
    123e:	31 f0       	breq	.+12     	; 0x124c <__vector_18+0x52>
    1240:	f0 e0       	ldi	r31, 0x00	; 0
    1242:	ef 54       	subi	r30, 0x4F	; 79
    1244:	fe 4f       	sbci	r31, 0xFE	; 254
    1246:	88 e5       	ldi	r24, 0x58	; 88
    1248:	80 83       	st	Z, r24
    124a:	04 c0       	rjmp	.+8      	; 0x1254 <__vector_18+0x5a>
    124c:	f0 e0       	ldi	r31, 0x00	; 0
    124e:	ef 54       	subi	r30, 0x4F	; 79
    1250:	fe 4f       	sbci	r31, 0xFE	; 254
    1252:	90 83       	st	Z, r25
    1254:	ff 91       	pop	r31
    1256:	ef 91       	pop	r30
    1258:	9f 91       	pop	r25
    125a:	8f 91       	pop	r24
    125c:	0f 90       	pop	r0
    125e:	0b be       	out	0x3b, r0	; 59
    1260:	0f 90       	pop	r0
    1262:	0f be       	out	0x3f, r0	; 63
    1264:	0f 90       	pop	r0
    1266:	1f 90       	pop	r1
    1268:	18 95       	reti

0000126a <__vector_19>:
    126a:	1f 92       	push	r1
    126c:	0f 92       	push	r0
    126e:	0f b6       	in	r0, 0x3f	; 63
    1270:	0f 92       	push	r0
    1272:	11 24       	eor	r1, r1
    1274:	0b b6       	in	r0, 0x3b	; 59
    1276:	0f 92       	push	r0
    1278:	8f 93       	push	r24
    127a:	9f 93       	push	r25
    127c:	ef 93       	push	r30
    127e:	ff 93       	push	r31
    1280:	90 91 b0 01 	lds	r25, 0x01B0	; 0x8001b0 <UART_TxHead>
    1284:	80 91 af 01 	lds	r24, 0x01AF	; 0x8001af <UART_TxTail>
    1288:	98 13       	cpse	r25, r24
    128a:	02 c0       	rjmp	.+4      	; 0x1290 <__vector_19+0x26>
    128c:	55 98       	cbi	0x0a, 5	; 10
    128e:	0b c0       	rjmp	.+22     	; 0x12a6 <__vector_19+0x3c>
    1290:	e0 91 af 01 	lds	r30, 0x01AF	; 0x8001af <UART_TxTail>
    1294:	ef 5f       	subi	r30, 0xFF	; 255
    1296:	ef 71       	andi	r30, 0x1F	; 31
    1298:	e0 93 af 01 	sts	0x01AF, r30	; 0x8001af <UART_TxTail>
    129c:	f0 e0       	ldi	r31, 0x00	; 0
    129e:	ef 52       	subi	r30, 0x2F	; 47
    12a0:	fe 4f       	sbci	r31, 0xFE	; 254
    12a2:	80 81       	ld	r24, Z
    12a4:	8c b9       	out	0x0c, r24	; 12
    12a6:	ff 91       	pop	r31
    12a8:	ef 91       	pop	r30
    12aa:	9f 91       	pop	r25
    12ac:	8f 91       	pop	r24
    12ae:	0f 90       	pop	r0
    12b0:	0b be       	out	0x3b, r0	; 59
    12b2:	0f 90       	pop	r0
    12b4:	0f be       	out	0x3f, r0	; 63
    12b6:	0f 90       	pop	r0
    12b8:	1f 90       	pop	r1
    12ba:	18 95       	reti

000012bc <UART1enable>:
    12bc:	ff 92       	push	r15
    12be:	0f 93       	push	r16
    12c0:	1f 93       	push	r17
    12c2:	cf 93       	push	r28
    12c4:	df 93       	push	r29
    12c6:	fc 01       	movw	r30, r24
    12c8:	ff b6       	in	r15, 0x3f	; 63
    12ca:	8f b7       	in	r24, 0x3f	; 63
    12cc:	8f 77       	andi	r24, 0x7F	; 127
    12ce:	8f bf       	out	0x3f, r24	; 63
    12d0:	10 92 6b 01 	sts	0x016B, r1	; 0x80016b <UART1_TxHead>
    12d4:	10 92 6a 01 	sts	0x016A, r1	; 0x80016a <UART1_TxTail>
    12d8:	10 92 69 01 	sts	0x0169, r1	; 0x800169 <UART1_RxHead>
    12dc:	10 92 68 01 	sts	0x0168, r1	; 0x800168 <UART1_RxTail>
    12e0:	10 92 18 02 	sts	0x0218, r1	; 0x800218 <uart1_index+0x1>
    12e4:	10 92 17 02 	sts	0x0217, r1	; 0x800217 <uart1_index>
    12e8:	10 92 19 02 	sts	0x0219, r1	; 0x800219 <uart1_msg>
    12ec:	77 23       	and	r23, r23
    12ee:	34 f4       	brge	.+12     	; 0x12fc <UART1enable+0x40>
    12f0:	82 e0       	ldi	r24, 0x02	; 2
    12f2:	80 93 9b 00 	sts	0x009B, r24	; 0x80009b <__TEXT_REGION_LENGTH__+0x7e009b>
    12f6:	cb 01       	movw	r24, r22
    12f8:	9f 77       	andi	r25, 0x7F	; 127
    12fa:	01 c0       	rjmp	.+2      	; 0x12fe <UART1enable+0x42>
    12fc:	cb 01       	movw	r24, r22
    12fe:	90 93 98 00 	sts	0x0098, r25	; 0x800098 <__TEXT_REGION_LENGTH__+0x7e0098>
    1302:	80 93 99 00 	sts	0x0099, r24	; 0x800099 <__TEXT_REGION_LENGTH__+0x7e0099>
    1306:	88 e9       	ldi	r24, 0x98	; 152
    1308:	80 93 9a 00 	sts	0x009A, r24	; 0x80009a <__TEXT_REGION_LENGTH__+0x7e009a>
    130c:	47 30       	cpi	r20, 0x07	; 7
    130e:	51 05       	cpc	r21, r1
    1310:	51 f1       	breq	.+84     	; 0x1366 <UART1enable+0xaa>
    1312:	40 f4       	brcc	.+16     	; 0x1324 <UART1enable+0x68>
    1314:	45 30       	cpi	r20, 0x05	; 5
    1316:	51 05       	cpc	r21, r1
    1318:	09 f4       	brne	.+2      	; 0x131c <UART1enable+0x60>
    131a:	45 c0       	rjmp	.+138    	; 0x13a6 <UART1enable+0xea>
    131c:	46 30       	cpi	r20, 0x06	; 6
    131e:	51 05       	cpc	r21, r1
    1320:	91 f1       	breq	.+100    	; 0x1386 <UART1enable+0xca>
    1322:	4e c0       	rjmp	.+156    	; 0x13c0 <UART1enable+0x104>
    1324:	48 30       	cpi	r20, 0x08	; 8
    1326:	51 05       	cpc	r21, r1
    1328:	89 f0       	breq	.+34     	; 0x134c <UART1enable+0x90>
    132a:	49 30       	cpi	r20, 0x09	; 9
    132c:	51 05       	cpc	r21, r1
    132e:	09 f0       	breq	.+2      	; 0x1332 <UART1enable+0x76>
    1330:	47 c0       	rjmp	.+142    	; 0x13c0 <UART1enable+0x104>
    1332:	ca e9       	ldi	r28, 0x9A	; 154
    1334:	d0 e0       	ldi	r29, 0x00	; 0
    1336:	88 81       	ld	r24, Y
    1338:	84 60       	ori	r24, 0x04	; 4
    133a:	88 83       	st	Y, r24
    133c:	cd e9       	ldi	r28, 0x9D	; 157
    133e:	d0 e0       	ldi	r29, 0x00	; 0
    1340:	88 81       	ld	r24, Y
    1342:	86 60       	ori	r24, 0x06	; 6
    1344:	88 83       	st	Y, r24
    1346:	c9 e0       	ldi	r28, 0x09	; 9
    1348:	d0 e0       	ldi	r29, 0x00	; 0
    134a:	46 c0       	rjmp	.+140    	; 0x13d8 <UART1enable+0x11c>
    134c:	ca e9       	ldi	r28, 0x9A	; 154
    134e:	d0 e0       	ldi	r29, 0x00	; 0
    1350:	88 81       	ld	r24, Y
    1352:	8b 7f       	andi	r24, 0xFB	; 251
    1354:	88 83       	st	Y, r24
    1356:	cd e9       	ldi	r28, 0x9D	; 157
    1358:	d0 e0       	ldi	r29, 0x00	; 0
    135a:	88 81       	ld	r24, Y
    135c:	86 60       	ori	r24, 0x06	; 6
    135e:	88 83       	st	Y, r24
    1360:	c8 e0       	ldi	r28, 0x08	; 8
    1362:	d0 e0       	ldi	r29, 0x00	; 0
    1364:	39 c0       	rjmp	.+114    	; 0x13d8 <UART1enable+0x11c>
    1366:	ca e9       	ldi	r28, 0x9A	; 154
    1368:	d0 e0       	ldi	r29, 0x00	; 0
    136a:	88 81       	ld	r24, Y
    136c:	8b 7f       	andi	r24, 0xFB	; 251
    136e:	88 83       	st	Y, r24
    1370:	cd e9       	ldi	r28, 0x9D	; 157
    1372:	d0 e0       	ldi	r29, 0x00	; 0
    1374:	88 81       	ld	r24, Y
    1376:	84 60       	ori	r24, 0x04	; 4
    1378:	88 83       	st	Y, r24
    137a:	88 81       	ld	r24, Y
    137c:	8d 7f       	andi	r24, 0xFD	; 253
    137e:	88 83       	st	Y, r24
    1380:	c7 e0       	ldi	r28, 0x07	; 7
    1382:	d0 e0       	ldi	r29, 0x00	; 0
    1384:	29 c0       	rjmp	.+82     	; 0x13d8 <UART1enable+0x11c>
    1386:	ca e9       	ldi	r28, 0x9A	; 154
    1388:	d0 e0       	ldi	r29, 0x00	; 0
    138a:	88 81       	ld	r24, Y
    138c:	8b 7f       	andi	r24, 0xFB	; 251
    138e:	88 83       	st	Y, r24
    1390:	cd e9       	ldi	r28, 0x9D	; 157
    1392:	d0 e0       	ldi	r29, 0x00	; 0
    1394:	88 81       	ld	r24, Y
    1396:	8b 7f       	andi	r24, 0xFB	; 251
    1398:	88 83       	st	Y, r24
    139a:	88 81       	ld	r24, Y
    139c:	82 60       	ori	r24, 0x02	; 2
    139e:	88 83       	st	Y, r24
    13a0:	c6 e0       	ldi	r28, 0x06	; 6
    13a2:	d0 e0       	ldi	r29, 0x00	; 0
    13a4:	19 c0       	rjmp	.+50     	; 0x13d8 <UART1enable+0x11c>
    13a6:	ca e9       	ldi	r28, 0x9A	; 154
    13a8:	d0 e0       	ldi	r29, 0x00	; 0
    13aa:	88 81       	ld	r24, Y
    13ac:	8b 7f       	andi	r24, 0xFB	; 251
    13ae:	88 83       	st	Y, r24
    13b0:	cd e9       	ldi	r28, 0x9D	; 157
    13b2:	d0 e0       	ldi	r29, 0x00	; 0
    13b4:	88 81       	ld	r24, Y
    13b6:	89 7f       	andi	r24, 0xF9	; 249
    13b8:	88 83       	st	Y, r24
    13ba:	c5 e0       	ldi	r28, 0x05	; 5
    13bc:	d0 e0       	ldi	r29, 0x00	; 0
    13be:	0c c0       	rjmp	.+24     	; 0x13d8 <UART1enable+0x11c>
    13c0:	ca e9       	ldi	r28, 0x9A	; 154
    13c2:	d0 e0       	ldi	r29, 0x00	; 0
    13c4:	88 81       	ld	r24, Y
    13c6:	8b 7f       	andi	r24, 0xFB	; 251
    13c8:	88 83       	st	Y, r24
    13ca:	cd e9       	ldi	r28, 0x9D	; 157
    13cc:	d0 e0       	ldi	r29, 0x00	; 0
    13ce:	88 81       	ld	r24, Y
    13d0:	86 60       	ori	r24, 0x06	; 6
    13d2:	88 83       	st	Y, r24
    13d4:	c8 e0       	ldi	r28, 0x08	; 8
    13d6:	d0 e0       	ldi	r29, 0x00	; 0
    13d8:	21 30       	cpi	r18, 0x01	; 1
    13da:	31 05       	cpc	r19, r1
    13dc:	21 f0       	breq	.+8      	; 0x13e6 <UART1enable+0x12a>
    13de:	22 30       	cpi	r18, 0x02	; 2
    13e0:	31 05       	cpc	r19, r1
    13e2:	51 f0       	breq	.+20     	; 0x13f8 <UART1enable+0x13c>
    13e4:	12 c0       	rjmp	.+36     	; 0x140a <UART1enable+0x14e>
    13e6:	2d e9       	ldi	r18, 0x9D	; 157
    13e8:	30 e0       	ldi	r19, 0x00	; 0
    13ea:	d9 01       	movw	r26, r18
    13ec:	8c 91       	ld	r24, X
    13ee:	87 7f       	andi	r24, 0xF7	; 247
    13f0:	8c 93       	st	X, r24
    13f2:	41 e0       	ldi	r20, 0x01	; 1
    13f4:	50 e0       	ldi	r21, 0x00	; 0
    13f6:	11 c0       	rjmp	.+34     	; 0x141a <UART1enable+0x15e>
    13f8:	2d e9       	ldi	r18, 0x9D	; 157
    13fa:	30 e0       	ldi	r19, 0x00	; 0
    13fc:	d9 01       	movw	r26, r18
    13fe:	8c 91       	ld	r24, X
    1400:	88 60       	ori	r24, 0x08	; 8
    1402:	8c 93       	st	X, r24
    1404:	42 e0       	ldi	r20, 0x02	; 2
    1406:	50 e0       	ldi	r21, 0x00	; 0
    1408:	08 c0       	rjmp	.+16     	; 0x141a <UART1enable+0x15e>
    140a:	2d e9       	ldi	r18, 0x9D	; 157
    140c:	30 e0       	ldi	r19, 0x00	; 0
    140e:	d9 01       	movw	r26, r18
    1410:	8c 91       	ld	r24, X
    1412:	87 7f       	andi	r24, 0xF7	; 247
    1414:	8c 93       	st	X, r24
    1416:	41 e0       	ldi	r20, 0x01	; 1
    1418:	50 e0       	ldi	r21, 0x00	; 0
    141a:	02 30       	cpi	r16, 0x02	; 2
    141c:	11 05       	cpc	r17, r1
    141e:	71 f0       	breq	.+28     	; 0x143c <UART1enable+0x180>
    1420:	03 30       	cpi	r16, 0x03	; 3
    1422:	11 05       	cpc	r17, r1
    1424:	b9 f0       	breq	.+46     	; 0x1454 <UART1enable+0x198>
    1426:	01 2b       	or	r16, r17
    1428:	f1 f4       	brne	.+60     	; 0x1466 <UART1enable+0x1aa>
    142a:	2d e9       	ldi	r18, 0x9D	; 157
    142c:	30 e0       	ldi	r19, 0x00	; 0
    142e:	d9 01       	movw	r26, r18
    1430:	8c 91       	ld	r24, X
    1432:	8f 7c       	andi	r24, 0xCF	; 207
    1434:	8c 93       	st	X, r24
    1436:	20 e0       	ldi	r18, 0x00	; 0
    1438:	30 e0       	ldi	r19, 0x00	; 0
    143a:	1d c0       	rjmp	.+58     	; 0x1476 <UART1enable+0x1ba>
    143c:	8d e9       	ldi	r24, 0x9D	; 157
    143e:	90 e0       	ldi	r25, 0x00	; 0
    1440:	dc 01       	movw	r26, r24
    1442:	2c 91       	ld	r18, X
    1444:	20 62       	ori	r18, 0x20	; 32
    1446:	2c 93       	st	X, r18
    1448:	2c 91       	ld	r18, X
    144a:	2f 7e       	andi	r18, 0xEF	; 239
    144c:	2c 93       	st	X, r18
    144e:	22 e0       	ldi	r18, 0x02	; 2
    1450:	30 e0       	ldi	r19, 0x00	; 0
    1452:	11 c0       	rjmp	.+34     	; 0x1476 <UART1enable+0x1ba>
    1454:	2d e9       	ldi	r18, 0x9D	; 157
    1456:	30 e0       	ldi	r19, 0x00	; 0
    1458:	d9 01       	movw	r26, r18
    145a:	8c 91       	ld	r24, X
    145c:	80 63       	ori	r24, 0x30	; 48
    145e:	8c 93       	st	X, r24
    1460:	23 e0       	ldi	r18, 0x03	; 3
    1462:	30 e0       	ldi	r19, 0x00	; 0
    1464:	08 c0       	rjmp	.+16     	; 0x1476 <UART1enable+0x1ba>
    1466:	2d e9       	ldi	r18, 0x9D	; 157
    1468:	30 e0       	ldi	r19, 0x00	; 0
    146a:	d9 01       	movw	r26, r18
    146c:	8c 91       	ld	r24, X
    146e:	8f 7c       	andi	r24, 0xCF	; 207
    1470:	8c 93       	st	X, r24
    1472:	20 e0       	ldi	r18, 0x00	; 0
    1474:	30 e0       	ldi	r19, 0x00	; 0
    1476:	ff be       	out	0x3f, r15	; 63
    1478:	8f b7       	in	r24, 0x3f	; 63
    147a:	80 68       	ori	r24, 0x80	; 128
    147c:	8f bf       	out	0x3f, r24	; 63
    147e:	71 83       	std	Z+1, r23	; 0x01
    1480:	60 83       	st	Z, r22
    1482:	d3 83       	std	Z+3, r29	; 0x03
    1484:	c2 83       	std	Z+2, r28	; 0x02
    1486:	55 83       	std	Z+5, r21	; 0x05
    1488:	44 83       	std	Z+4, r20	; 0x04
    148a:	37 83       	std	Z+7, r19	; 0x07
    148c:	26 83       	std	Z+6, r18	; 0x06
    148e:	8b e7       	ldi	r24, 0x7B	; 123
    1490:	9a e0       	ldi	r25, 0x0A	; 10
    1492:	91 87       	std	Z+9, r25	; 0x09
    1494:	80 87       	std	Z+8, r24	; 0x08
    1496:	8e ec       	ldi	r24, 0xCE	; 206
    1498:	98 e0       	ldi	r25, 0x08	; 8
    149a:	93 87       	std	Z+11, r25	; 0x0b
    149c:	82 87       	std	Z+10, r24	; 0x0a
    149e:	8a eb       	ldi	r24, 0xBA	; 186
    14a0:	9a e0       	ldi	r25, 0x0A	; 10
    14a2:	95 87       	std	Z+13, r25	; 0x0d
    14a4:	84 87       	std	Z+12, r24	; 0x0c
    14a6:	81 ec       	ldi	r24, 0xC1	; 193
    14a8:	9a e0       	ldi	r25, 0x0A	; 10
    14aa:	97 87       	std	Z+15, r25	; 0x0f
    14ac:	86 87       	std	Z+14, r24	; 0x0e
    14ae:	8b ee       	ldi	r24, 0xEB	; 235
    14b0:	98 e0       	ldi	r25, 0x08	; 8
    14b2:	91 8b       	std	Z+17, r25	; 0x11
    14b4:	80 8b       	std	Z+16, r24	; 0x10
    14b6:	88 ef       	ldi	r24, 0xF8	; 248
    14b8:	98 e0       	ldi	r25, 0x08	; 8
    14ba:	93 8b       	std	Z+19, r25	; 0x13
    14bc:	82 8b       	std	Z+18, r24	; 0x12
    14be:	cf 01       	movw	r24, r30
    14c0:	df 91       	pop	r29
    14c2:	cf 91       	pop	r28
    14c4:	1f 91       	pop	r17
    14c6:	0f 91       	pop	r16
    14c8:	ff 90       	pop	r15
    14ca:	08 95       	ret

000014cc <UART1_Rx_pop>:
    14cc:	90 91 69 01 	lds	r25, 0x0169	; 0x800169 <UART1_RxHead>
    14d0:	80 91 68 01 	lds	r24, 0x0168	; 0x800168 <UART1_RxTail>
    14d4:	98 17       	cp	r25, r24
    14d6:	69 f0       	breq	.+26     	; 0x14f2 <UART1_Rx_pop+0x26>
    14d8:	80 91 68 01 	lds	r24, 0x0168	; 0x800168 <UART1_RxTail>
    14dc:	8f 5f       	subi	r24, 0xFF	; 255
    14de:	8f 71       	andi	r24, 0x1F	; 31
    14e0:	80 93 68 01 	sts	0x0168, r24	; 0x800168 <UART1_RxTail>
    14e4:	e0 91 68 01 	lds	r30, 0x0168	; 0x800168 <UART1_RxTail>
    14e8:	f0 e0       	ldi	r31, 0x00	; 0
    14ea:	e4 59       	subi	r30, 0x94	; 148
    14ec:	fe 4f       	sbci	r31, 0xFE	; 254
    14ee:	80 81       	ld	r24, Z
    14f0:	08 95       	ret
    14f2:	80 e0       	ldi	r24, 0x00	; 0
    14f4:	08 95       	ret

000014f6 <uart1_read>:
    14f6:	cf 93       	push	r28
    14f8:	df 93       	push	r29
    14fa:	90 91 68 01 	lds	r25, 0x0168	; 0x800168 <UART1_RxTail>
    14fe:	80 91 69 01 	lds	r24, 0x0169	; 0x800169 <UART1_RxHead>
    1502:	98 17       	cp	r25, r24
    1504:	d9 f0       	breq	.+54     	; 0x153c <uart1_read+0x46>
    1506:	c0 91 17 02 	lds	r28, 0x0217	; 0x800217 <uart1_index>
    150a:	d0 91 18 02 	lds	r29, 0x0218	; 0x800218 <uart1_index+0x1>
    150e:	cf 31       	cpi	r28, 0x1F	; 31
    1510:	d1 05       	cpc	r29, r1
    1512:	a4 f4       	brge	.+40     	; 0x153c <uart1_read+0x46>
    1514:	db df       	rcall	.-74     	; 0x14cc <UART1_Rx_pop>
    1516:	c7 5e       	subi	r28, 0xE7	; 231
    1518:	dd 4f       	sbci	r29, 0xFD	; 253
    151a:	88 83       	st	Y, r24
    151c:	80 91 17 02 	lds	r24, 0x0217	; 0x800217 <uart1_index>
    1520:	90 91 18 02 	lds	r25, 0x0218	; 0x800218 <uart1_index+0x1>
    1524:	01 96       	adiw	r24, 0x01	; 1
    1526:	90 93 18 02 	sts	0x0218, r25	; 0x800218 <uart1_index+0x1>
    152a:	80 93 17 02 	sts	0x0217, r24	; 0x800217 <uart1_index>
    152e:	fc 01       	movw	r30, r24
    1530:	e7 5e       	subi	r30, 0xE7	; 231
    1532:	fd 4f       	sbci	r31, 0xFD	; 253
    1534:	10 82       	st	Z, r1
    1536:	80 e2       	ldi	r24, 0x20	; 32
    1538:	91 e0       	ldi	r25, 0x01	; 1
    153a:	06 c0       	rjmp	.+12     	; 0x1548 <uart1_read+0x52>
    153c:	10 92 18 02 	sts	0x0218, r1	; 0x800218 <uart1_index+0x1>
    1540:	10 92 17 02 	sts	0x0217, r1	; 0x800217 <uart1_index>
    1544:	89 e1       	ldi	r24, 0x19	; 25
    1546:	92 e0       	ldi	r25, 0x02	; 2
    1548:	df 91       	pop	r29
    154a:	cf 91       	pop	r28
    154c:	08 95       	ret

0000154e <UART1_Tx_push>:
    154e:	90 91 6b 01 	lds	r25, 0x016B	; 0x80016b <UART1_TxHead>
    1552:	9f 5f       	subi	r25, 0xFF	; 255
    1554:	9f 71       	andi	r25, 0x1F	; 31
    1556:	90 93 6b 01 	sts	0x016B, r25	; 0x80016b <UART1_TxHead>
    155a:	20 91 6b 01 	lds	r18, 0x016B	; 0x80016b <UART1_TxHead>
    155e:	90 91 6a 01 	lds	r25, 0x016A	; 0x80016a <UART1_TxTail>
    1562:	29 17       	cp	r18, r25
    1564:	d1 f3       	breq	.-12     	; 0x155a <UART1_Tx_push+0xc>
    1566:	e0 91 6b 01 	lds	r30, 0x016B	; 0x80016b <UART1_TxHead>
    156a:	f0 e0       	ldi	r31, 0x00	; 0
    156c:	e4 57       	subi	r30, 0x74	; 116
    156e:	fe 4f       	sbci	r31, 0xFE	; 254
    1570:	80 83       	st	Z, r24
    1572:	08 95       	ret

00001574 <uart1_putc>:
    1574:	ec df       	rcall	.-40     	; 0x154e <UART1_Tx_push>
    1576:	ea e9       	ldi	r30, 0x9A	; 154
    1578:	f0 e0       	ldi	r31, 0x00	; 0
    157a:	80 81       	ld	r24, Z
    157c:	80 62       	ori	r24, 0x20	; 32
    157e:	80 83       	st	Z, r24
    1580:	08 95       	ret

00001582 <uart1_puts>:
    1582:	cf 93       	push	r28
    1584:	df 93       	push	r29
    1586:	ec 01       	movw	r28, r24
    1588:	88 81       	ld	r24, Y
    158a:	88 23       	and	r24, r24
    158c:	29 f0       	breq	.+10     	; 0x1598 <uart1_puts+0x16>
    158e:	21 96       	adiw	r28, 0x01	; 1
    1590:	f1 df       	rcall	.-30     	; 0x1574 <uart1_putc>
    1592:	89 91       	ld	r24, Y+
    1594:	81 11       	cpse	r24, r1
    1596:	fc cf       	rjmp	.-8      	; 0x1590 <uart1_puts+0xe>
    1598:	df 91       	pop	r29
    159a:	cf 91       	pop	r28
    159c:	08 95       	ret

0000159e <__vector_30>:
SIGNAL(UART1_RECEIVE_INTERRUPT)
/*************************************************************************
Function: UART1 Receive Complete interrupt
Purpose:  called when the UART1 has received a character
**************************************************************************/
{
    159e:	1f 92       	push	r1
    15a0:	0f 92       	push	r0
    15a2:	0f b6       	in	r0, 0x3f	; 63
    15a4:	0f 92       	push	r0
    15a6:	11 24       	eor	r1, r1
    15a8:	0b b6       	in	r0, 0x3b	; 59
    15aa:	0f 92       	push	r0
    15ac:	8f 93       	push	r24
    15ae:	9f 93       	push	r25
    15b0:	ef 93       	push	r30
    15b2:	ff 93       	push	r31
    unsigned char tmphead;
	unsigned char data;
	unsigned char bit9;
    unsigned char usr;
    /* read UART status register and UART data register */
	usr  = UART1_STATUS;
    15b4:	80 91 9b 00 	lds	r24, 0x009B	; 0x80009b <__TEXT_REGION_LENGTH__+0x7e009b>
    bit9 = UART1_CONTROL;
    15b8:	90 91 9a 00 	lds	r25, 0x009A	; 0x80009a <__TEXT_REGION_LENGTH__+0x7e009a>
    bit9 = 0x01 & (bit9>>1);
    /* */
    UART1_LastRxError = (usr & (_BV(FE1)|_BV(DOR1)));
    15bc:	88 71       	andi	r24, 0x18	; 24
    15be:	80 93 67 01 	sts	0x0167, r24	; 0x800167 <UART1_LastRxError>
	/* calculate buffer index */
    tmphead = ( UART1_RxHead + 1) & UART_RX_BUFFER_MASK;
    15c2:	e0 91 69 01 	lds	r30, 0x0169	; 0x800169 <UART1_RxHead>
    15c6:	ef 5f       	subi	r30, 0xFF	; 255
    15c8:	ef 71       	andi	r30, 0x1F	; 31
    if ( tmphead == UART1_RxTail ) {	
    15ca:	80 91 68 01 	lds	r24, 0x0168	; 0x800168 <UART1_RxTail>
    15ce:	e8 13       	cpse	r30, r24
    15d0:	04 c0       	rjmp	.+8      	; 0x15da <__vector_30+0x3c>
        /* error: receive buffer overflow, caracter is lost*/
        UART1_LastRxError = UART_BUFFER_OVERFLOW >> 8; 
    15d2:	82 e0       	ldi	r24, 0x02	; 2
    15d4:	80 93 67 01 	sts	0x0167, r24	; 0x800167 <UART1_LastRxError>
    15d8:	12 c0       	rjmp	.+36     	; 0x15fe <__vector_30+0x60>
	}else{
		data = UART1_DATA;
    15da:	90 91 9c 00 	lds	r25, 0x009C	; 0x80009c <__TEXT_REGION_LENGTH__+0x7e009c>
        /* store new index */
        UART1_RxHead = tmphead;
    15de:	e0 93 69 01 	sts	0x0169, r30	; 0x800169 <UART1_RxHead>
		if(UART1_LastRxError){
    15e2:	80 91 67 01 	lds	r24, 0x0167	; 0x800167 <UART1_LastRxError>
    15e6:	88 23       	and	r24, r24
    15e8:	31 f0       	breq	.+12     	; 0x15f6 <__vector_30+0x58>
			/* store indication data error in buffer */
			UART1_RxBuf[tmphead] = 'X';
    15ea:	f0 e0       	ldi	r31, 0x00	; 0
    15ec:	e4 59       	subi	r30, 0x94	; 148
    15ee:	fe 4f       	sbci	r31, 0xFE	; 254
    15f0:	88 e5       	ldi	r24, 0x58	; 88
    15f2:	80 83       	st	Z, r24
    15f4:	04 c0       	rjmp	.+8      	; 0x15fe <__vector_30+0x60>
		}else{
			/* store received data in buffer */
			UART1_RxBuf[tmphead] = data;
    15f6:	f0 e0       	ldi	r31, 0x00	; 0
    15f8:	e4 59       	subi	r30, 0x94	; 148
    15fa:	fe 4f       	sbci	r31, 0xFE	; 254
    15fc:	90 83       	st	Z, r25
		}
    }
}
    15fe:	ff 91       	pop	r31
    1600:	ef 91       	pop	r30
    1602:	9f 91       	pop	r25
    1604:	8f 91       	pop	r24
    1606:	0f 90       	pop	r0
    1608:	0b be       	out	0x3b, r0	; 59
    160a:	0f 90       	pop	r0
    160c:	0f be       	out	0x3f, r0	; 63
    160e:	0f 90       	pop	r0
    1610:	1f 90       	pop	r1
    1612:	18 95       	reti

00001614 <__vector_31>:
SIGNAL(UART1_TRANSMIT_INTERRUPT)
/*************************************************************************
Function: UART1 Data Register Empty interrupt
Purpose:  called when the UART1 is ready to transmit the next byte
**************************************************************************/
{
    1614:	1f 92       	push	r1
    1616:	0f 92       	push	r0
    1618:	0f b6       	in	r0, 0x3f	; 63
    161a:	0f 92       	push	r0
    161c:	11 24       	eor	r1, r1
    161e:	0b b6       	in	r0, 0x3b	; 59
    1620:	0f 92       	push	r0
    1622:	8f 93       	push	r24
    1624:	9f 93       	push	r25
    1626:	ef 93       	push	r30
    1628:	ff 93       	push	r31
    if ( UART1_TxHead == UART1_TxTail ) {
    162a:	90 91 6b 01 	lds	r25, 0x016B	; 0x80016b <UART1_TxHead>
    162e:	80 91 6a 01 	lds	r24, 0x016A	; 0x80016a <UART1_TxTail>
    1632:	98 13       	cpse	r25, r24
    1634:	06 c0       	rjmp	.+12     	; 0x1642 <__vector_31+0x2e>
        /* tx buffer empty, disable UDRE interrupt */
        UART1_CONTROL &= ~_BV(UART1_UDRIE);
    1636:	ea e9       	ldi	r30, 0x9A	; 154
    1638:	f0 e0       	ldi	r31, 0x00	; 0
    163a:	80 81       	ld	r24, Z
    163c:	8f 7d       	andi	r24, 0xDF	; 223
    163e:	80 83       	st	Z, r24
    1640:	0e c0       	rjmp	.+28     	; 0x165e <__vector_31+0x4a>
    }else{
		/* calculate and store new buffer index */
        UART1_TxTail = (UART1_TxTail + 1) & UART_TX_BUFFER_MASK;
    1642:	80 91 6a 01 	lds	r24, 0x016A	; 0x80016a <UART1_TxTail>
    1646:	8f 5f       	subi	r24, 0xFF	; 255
    1648:	8f 71       	andi	r24, 0x1F	; 31
    164a:	80 93 6a 01 	sts	0x016A, r24	; 0x80016a <UART1_TxTail>
        /* get one byte from buffer and write it to UART */
		UART1_DATA = UART1_TxBuf[UART1_TxTail];  /* start transmission */
    164e:	e0 91 6a 01 	lds	r30, 0x016A	; 0x80016a <UART1_TxTail>
    1652:	f0 e0       	ldi	r31, 0x00	; 0
    1654:	e4 57       	subi	r30, 0x74	; 116
    1656:	fe 4f       	sbci	r31, 0xFE	; 254
    1658:	80 81       	ld	r24, Z
    165a:	80 93 9c 00 	sts	0x009C, r24	; 0x80009c <__TEXT_REGION_LENGTH__+0x7e009c>
	}
}
    165e:	ff 91       	pop	r31
    1660:	ef 91       	pop	r30
    1662:	9f 91       	pop	r25
    1664:	8f 91       	pop	r24
    1666:	0f 90       	pop	r0
    1668:	0b be       	out	0x3b, r0	; 59
    166a:	0f 90       	pop	r0
    166c:	0f be       	out	0x3f, r0	; 63
    166e:	0f 90       	pop	r0
    1670:	1f 90       	pop	r1
    1672:	18 95       	reti

00001674 <CLOCK_set>:
	clock.show=CLOCK_show;
	return clock;
}
void CLOCK_set(uint8_t hour, uint8_t minute, uint8_t second)
{
	time.hour=hour;
    1674:	e8 e4       	ldi	r30, 0x48	; 72
    1676:	f2 e0       	ldi	r31, 0x02	; 2
    1678:	80 83       	st	Z, r24
	time.minute=minute;
    167a:	61 83       	std	Z+1, r22	; 0x01
	time.second=second;
    167c:	42 83       	std	Z+2, r20	; 0x02
    167e:	08 95       	ret

00001680 <CLOCK_increment>:
}
void CLOCK_increment(void)
{
	time.second++;
    1680:	e8 e4       	ldi	r30, 0x48	; 72
    1682:	f2 e0       	ldi	r31, 0x02	; 2
    1684:	82 81       	ldd	r24, Z+2	; 0x02
    1686:	8f 5f       	subi	r24, 0xFF	; 255
    1688:	82 83       	std	Z+2, r24	; 0x02
	if(time.second>59){
    168a:	8c 33       	cpi	r24, 0x3C	; 60
    168c:	0c f4       	brge	.+2      	; 0x1690 <CLOCK_increment+0x10>
    168e:	7a c0       	rjmp	.+244    	; 0x1784 <CLOCK_increment+0x104>
		time.minute++;
    1690:	81 81       	ldd	r24, Z+1	; 0x01
    1692:	8f 5f       	subi	r24, 0xFF	; 255
    1694:	81 83       	std	Z+1, r24	; 0x01
		time.second=0;
    1696:	12 82       	std	Z+2, r1	; 0x02
		if(time.minute>59){
    1698:	8c 33       	cpi	r24, 0x3C	; 60
    169a:	44 f0       	brlt	.+16     	; 0x16ac <CLOCK_increment+0x2c>
			time.hour++;
    169c:	80 81       	ld	r24, Z
    169e:	8f 5f       	subi	r24, 0xFF	; 255
    16a0:	80 83       	st	Z, r24
			time.minute=0;
    16a2:	11 82       	std	Z+1, r1	; 0x01
			switch (HORA){
				case 24:
					if(time.hour>23)
    16a4:	88 31       	cpi	r24, 0x18	; 24
    16a6:	14 f0       	brlt	.+4      	; 0x16ac <CLOCK_increment+0x2c>
						time.hour=0;
    16a8:	10 92 48 02 	sts	0x0248, r1	; 0x800248 <time>
					break;
			}
		}
	}
	/******************************************************************************************************************/
	if(time.hour==laptime.hour && CLOCK_compare_active==4)
    16ac:	80 91 48 02 	lds	r24, 0x0248	; 0x800248 <time>
    16b0:	90 91 4b 02 	lds	r25, 0x024B	; 0x80024b <laptime>
    16b4:	89 13       	cpse	r24, r25
    16b6:	2a c0       	rjmp	.+84     	; 0x170c <CLOCK_increment+0x8c>
    16b8:	90 91 4e 02 	lds	r25, 0x024E	; 0x80024e <CLOCK_compare_active>
    16bc:	94 30       	cpi	r25, 0x04	; 4
    16be:	09 f0       	breq	.+2      	; 0x16c2 <CLOCK_increment+0x42>
    16c0:	53 c0       	rjmp	.+166    	; 0x1768 <CLOCK_increment+0xe8>
		CLOCK_compare_active=3;
    16c2:	93 e0       	ldi	r25, 0x03	; 3
    16c4:	90 93 4e 02 	sts	0x024E, r25	; 0x80024e <CLOCK_compare_active>
	if(time.hour==laptime.hour && time.minute==laptime.minute && CLOCK_compare_active==3)
    16c8:	20 91 4c 02 	lds	r18, 0x024C	; 0x80024c <laptime+0x1>
    16cc:	90 91 49 02 	lds	r25, 0x0249	; 0x800249 <time+0x1>
    16d0:	29 13       	cpse	r18, r25
    16d2:	09 c0       	rjmp	.+18     	; 0x16e6 <CLOCK_increment+0x66>
    16d4:	04 c0       	rjmp	.+8      	; 0x16de <CLOCK_increment+0x5e>
    16d6:	90 91 4e 02 	lds	r25, 0x024E	; 0x80024e <CLOCK_compare_active>
    16da:	93 30       	cpi	r25, 0x03	; 3
    16dc:	51 f4       	brne	.+20     	; 0x16f2 <CLOCK_increment+0x72>
		CLOCK_compare_active=2;
    16de:	92 e0       	ldi	r25, 0x02	; 2
    16e0:	90 93 4e 02 	sts	0x024E, r25	; 0x80024e <CLOCK_compare_active>
    16e4:	06 c0       	rjmp	.+12     	; 0x16f2 <CLOCK_increment+0x72>
	if(time.hour==laptime.hour && time.minute==laptime.minute && time.second==laptime.second && CLOCK_compare_active==2)
    16e6:	20 91 49 02 	lds	r18, 0x0249	; 0x800249 <time+0x1>
    16ea:	90 91 4c 02 	lds	r25, 0x024C	; 0x80024c <laptime+0x1>
    16ee:	29 13       	cpse	r18, r25
    16f0:	0d c0       	rjmp	.+26     	; 0x170c <CLOCK_increment+0x8c>
    16f2:	20 91 4a 02 	lds	r18, 0x024A	; 0x80024a <time+0x2>
    16f6:	90 91 4d 02 	lds	r25, 0x024D	; 0x80024d <laptime+0x2>
    16fa:	29 13       	cpse	r18, r25
    16fc:	07 c0       	rjmp	.+14     	; 0x170c <CLOCK_increment+0x8c>
    16fe:	90 91 4e 02 	lds	r25, 0x024E	; 0x80024e <CLOCK_compare_active>
    1702:	92 30       	cpi	r25, 0x02	; 2
    1704:	19 f4       	brne	.+6      	; 0x170c <CLOCK_increment+0x8c>
		CLOCK_compare_active=1;
    1706:	91 e0       	ldi	r25, 0x01	; 1
    1708:	90 93 4e 02 	sts	0x024E, r25	; 0x80024e <CLOCK_compare_active>
	/******************************************************************************************************************/
	if(time.hour==alarmtime.hour && CLOCK_alarm_flag==4)
    170c:	90 91 45 02 	lds	r25, 0x0245	; 0x800245 <alarmtime>
    1710:	98 13       	cpse	r25, r24
    1712:	3f c0       	rjmp	.+126    	; 0x1792 <CLOCK_increment+0x112>
    1714:	80 91 44 02 	lds	r24, 0x0244	; 0x800244 <CLOCK_alarm_flag>
    1718:	84 30       	cpi	r24, 0x04	; 4
    171a:	69 f5       	brne	.+90     	; 0x1776 <CLOCK_increment+0xf6>
		CLOCK_alarm_flag=3;
    171c:	83 e0       	ldi	r24, 0x03	; 3
    171e:	80 93 44 02 	sts	0x0244, r24	; 0x800244 <CLOCK_alarm_flag>
	if(time.hour==alarmtime.hour && time.minute==alarmtime.minute && CLOCK_alarm_flag==3)
    1722:	90 91 49 02 	lds	r25, 0x0249	; 0x800249 <time+0x1>
    1726:	80 91 46 02 	lds	r24, 0x0246	; 0x800246 <alarmtime+0x1>
    172a:	98 13       	cpse	r25, r24
    172c:	09 c0       	rjmp	.+18     	; 0x1740 <CLOCK_increment+0xc0>
    172e:	04 c0       	rjmp	.+8      	; 0x1738 <CLOCK_increment+0xb8>
    1730:	80 91 44 02 	lds	r24, 0x0244	; 0x800244 <CLOCK_alarm_flag>
    1734:	83 30       	cpi	r24, 0x03	; 3
    1736:	51 f4       	brne	.+20     	; 0x174c <CLOCK_increment+0xcc>
		CLOCK_alarm_flag=2;
    1738:	82 e0       	ldi	r24, 0x02	; 2
    173a:	80 93 44 02 	sts	0x0244, r24	; 0x800244 <CLOCK_alarm_flag>
    173e:	06 c0       	rjmp	.+12     	; 0x174c <CLOCK_increment+0xcc>
	if(time.hour==alarmtime.hour && time.minute==alarmtime.minute && time.second==alarmtime.second && CLOCK_alarm_flag==2)
    1740:	90 91 49 02 	lds	r25, 0x0249	; 0x800249 <time+0x1>
    1744:	80 91 46 02 	lds	r24, 0x0246	; 0x800246 <alarmtime+0x1>
    1748:	98 13       	cpse	r25, r24
    174a:	23 c0       	rjmp	.+70     	; 0x1792 <CLOCK_increment+0x112>
    174c:	90 91 4a 02 	lds	r25, 0x024A	; 0x80024a <time+0x2>
    1750:	80 91 47 02 	lds	r24, 0x0247	; 0x800247 <alarmtime+0x2>
    1754:	98 13       	cpse	r25, r24
    1756:	1d c0       	rjmp	.+58     	; 0x1792 <CLOCK_increment+0x112>
    1758:	80 91 44 02 	lds	r24, 0x0244	; 0x800244 <CLOCK_alarm_flag>
    175c:	82 30       	cpi	r24, 0x02	; 2
    175e:	c9 f4       	brne	.+50     	; 0x1792 <CLOCK_increment+0x112>
		CLOCK_alarm_flag=1;
    1760:	81 e0       	ldi	r24, 0x01	; 1
    1762:	80 93 44 02 	sts	0x0244, r24	; 0x800244 <CLOCK_alarm_flag>
}
    1766:	08 95       	ret
		}
	}
	/******************************************************************************************************************/
	if(time.hour==laptime.hour && CLOCK_compare_active==4)
		CLOCK_compare_active=3;
	if(time.hour==laptime.hour && time.minute==laptime.minute && CLOCK_compare_active==3)
    1768:	20 91 49 02 	lds	r18, 0x0249	; 0x800249 <time+0x1>
    176c:	90 91 4c 02 	lds	r25, 0x024C	; 0x80024c <laptime+0x1>
    1770:	29 13       	cpse	r18, r25
    1772:	cc cf       	rjmp	.-104    	; 0x170c <CLOCK_increment+0x8c>
    1774:	b0 cf       	rjmp	.-160    	; 0x16d6 <CLOCK_increment+0x56>
	if(time.hour==laptime.hour && time.minute==laptime.minute && time.second==laptime.second && CLOCK_compare_active==2)
		CLOCK_compare_active=1;
	/******************************************************************************************************************/
	if(time.hour==alarmtime.hour && CLOCK_alarm_flag==4)
		CLOCK_alarm_flag=3;
	if(time.hour==alarmtime.hour && time.minute==alarmtime.minute && CLOCK_alarm_flag==3)
    1776:	90 91 49 02 	lds	r25, 0x0249	; 0x800249 <time+0x1>
    177a:	80 91 46 02 	lds	r24, 0x0246	; 0x800246 <alarmtime+0x1>
    177e:	98 13       	cpse	r25, r24
    1780:	08 c0       	rjmp	.+16     	; 0x1792 <CLOCK_increment+0x112>
    1782:	d6 cf       	rjmp	.-84     	; 0x1730 <CLOCK_increment+0xb0>
					break;
			}
		}
	}
	/******************************************************************************************************************/
	if(time.hour==laptime.hour && CLOCK_compare_active==4)
    1784:	80 91 48 02 	lds	r24, 0x0248	; 0x800248 <time>
    1788:	90 91 4b 02 	lds	r25, 0x024B	; 0x80024b <laptime>
    178c:	98 13       	cpse	r25, r24
    178e:	be cf       	rjmp	.-132    	; 0x170c <CLOCK_increment+0x8c>
    1790:	93 cf       	rjmp	.-218    	; 0x16b8 <CLOCK_increment+0x38>
    1792:	08 95       	ret

00001794 <CLOCK_decrement>:
	if(time.hour==alarmtime.hour && time.minute==alarmtime.minute && time.second==alarmtime.second && CLOCK_alarm_flag==2)
		CLOCK_alarm_flag=1;
}
void CLOCK_decrement(void)
{
	time.second--;
    1794:	e8 e4       	ldi	r30, 0x48	; 72
    1796:	f2 e0       	ldi	r31, 0x02	; 2
    1798:	82 81       	ldd	r24, Z+2	; 0x02
    179a:	81 50       	subi	r24, 0x01	; 1
    179c:	82 83       	std	Z+2, r24	; 0x02
	if(time.second<0){
    179e:	88 23       	and	r24, r24
    17a0:	0c f0       	brlt	.+2      	; 0x17a4 <CLOCK_decrement+0x10>
    17a2:	47 c0       	rjmp	.+142    	; 0x1832 <CLOCK_decrement+0x9e>
		time.minute--;
    17a4:	81 81       	ldd	r24, Z+1	; 0x01
    17a6:	81 50       	subi	r24, 0x01	; 1
    17a8:	81 83       	std	Z+1, r24	; 0x01
		time.second=59;
    17aa:	9b e3       	ldi	r25, 0x3B	; 59
    17ac:	92 83       	std	Z+2, r25	; 0x02
		if(time.minute<0){
    17ae:	88 23       	and	r24, r24
    17b0:	4c f4       	brge	.+18     	; 0x17c4 <CLOCK_decrement+0x30>
			time.hour--;
    17b2:	80 81       	ld	r24, Z
    17b4:	81 50       	subi	r24, 0x01	; 1
    17b6:	80 83       	st	Z, r24
			time.minute=59;
    17b8:	91 83       	std	Z+1, r25	; 0x01
			switch (HORA){
				case 24:
					if(time.hour<0)
    17ba:	88 23       	and	r24, r24
    17bc:	1c f4       	brge	.+6      	; 0x17c4 <CLOCK_decrement+0x30>
						time.hour=23;
    17be:	87 e1       	ldi	r24, 0x17	; 23
    17c0:	80 93 48 02 	sts	0x0248, r24	; 0x800248 <time>
					break;
			}
		}
	}
	/******************************************************************************************************************/
	if(time.hour==alarmtime.hour && CLOCK_alarm_flag==4)
    17c4:	90 91 48 02 	lds	r25, 0x0248	; 0x800248 <time>
    17c8:	80 91 45 02 	lds	r24, 0x0245	; 0x800245 <alarmtime>
    17cc:	98 13       	cpse	r25, r24
    17ce:	37 c0       	rjmp	.+110    	; 0x183e <CLOCK_decrement+0xaa>
    17d0:	80 91 44 02 	lds	r24, 0x0244	; 0x800244 <CLOCK_alarm_flag>
    17d4:	84 30       	cpi	r24, 0x04	; 4
    17d6:	31 f5       	brne	.+76     	; 0x1824 <CLOCK_decrement+0x90>
		CLOCK_alarm_flag=3;
    17d8:	83 e0       	ldi	r24, 0x03	; 3
    17da:	80 93 44 02 	sts	0x0244, r24	; 0x800244 <CLOCK_alarm_flag>
	if(time.hour==alarmtime.hour && time.minute==alarmtime.minute && CLOCK_alarm_flag==3)
    17de:	90 91 49 02 	lds	r25, 0x0249	; 0x800249 <time+0x1>
    17e2:	80 91 46 02 	lds	r24, 0x0246	; 0x800246 <alarmtime+0x1>
    17e6:	98 13       	cpse	r25, r24
    17e8:	09 c0       	rjmp	.+18     	; 0x17fc <CLOCK_decrement+0x68>
    17ea:	04 c0       	rjmp	.+8      	; 0x17f4 <CLOCK_decrement+0x60>
    17ec:	80 91 44 02 	lds	r24, 0x0244	; 0x800244 <CLOCK_alarm_flag>
    17f0:	83 30       	cpi	r24, 0x03	; 3
    17f2:	51 f4       	brne	.+20     	; 0x1808 <CLOCK_decrement+0x74>
		CLOCK_alarm_flag=2;
    17f4:	82 e0       	ldi	r24, 0x02	; 2
    17f6:	80 93 44 02 	sts	0x0244, r24	; 0x800244 <CLOCK_alarm_flag>
    17fa:	06 c0       	rjmp	.+12     	; 0x1808 <CLOCK_decrement+0x74>
	if(time.hour==alarmtime.hour && time.minute==alarmtime.minute && time.second==alarmtime.second && CLOCK_alarm_flag==2)
    17fc:	90 91 49 02 	lds	r25, 0x0249	; 0x800249 <time+0x1>
    1800:	80 91 46 02 	lds	r24, 0x0246	; 0x800246 <alarmtime+0x1>
    1804:	98 13       	cpse	r25, r24
    1806:	1b c0       	rjmp	.+54     	; 0x183e <CLOCK_decrement+0xaa>
    1808:	90 91 4a 02 	lds	r25, 0x024A	; 0x80024a <time+0x2>
    180c:	80 91 47 02 	lds	r24, 0x0247	; 0x800247 <alarmtime+0x2>
    1810:	98 13       	cpse	r25, r24
    1812:	15 c0       	rjmp	.+42     	; 0x183e <CLOCK_decrement+0xaa>
    1814:	80 91 44 02 	lds	r24, 0x0244	; 0x800244 <CLOCK_alarm_flag>
    1818:	82 30       	cpi	r24, 0x02	; 2
    181a:	89 f4       	brne	.+34     	; 0x183e <CLOCK_decrement+0xaa>
		CLOCK_alarm_flag=1;		
    181c:	81 e0       	ldi	r24, 0x01	; 1
    181e:	80 93 44 02 	sts	0x0244, r24	; 0x800244 <CLOCK_alarm_flag>
}
    1822:	08 95       	ret
		}
	}
	/******************************************************************************************************************/
	if(time.hour==alarmtime.hour && CLOCK_alarm_flag==4)
		CLOCK_alarm_flag=3;
	if(time.hour==alarmtime.hour && time.minute==alarmtime.minute && CLOCK_alarm_flag==3)
    1824:	90 91 49 02 	lds	r25, 0x0249	; 0x800249 <time+0x1>
    1828:	80 91 46 02 	lds	r24, 0x0246	; 0x800246 <alarmtime+0x1>
    182c:	98 13       	cpse	r25, r24
    182e:	07 c0       	rjmp	.+14     	; 0x183e <CLOCK_decrement+0xaa>
    1830:	dd cf       	rjmp	.-70     	; 0x17ec <CLOCK_decrement+0x58>
					break;
			}
		}
	}
	/******************************************************************************************************************/
	if(time.hour==alarmtime.hour && CLOCK_alarm_flag==4)
    1832:	90 91 48 02 	lds	r25, 0x0248	; 0x800248 <time>
    1836:	80 91 45 02 	lds	r24, 0x0245	; 0x800245 <alarmtime>
    183a:	98 17       	cp	r25, r24
    183c:	49 f2       	breq	.-110    	; 0x17d0 <CLOCK_decrement+0x3c>
    183e:	08 95       	ret

00001840 <CLOCK_alarm>:
	if(time.hour==alarmtime.hour && time.minute==alarmtime.minute && time.second==alarmtime.second && CLOCK_alarm_flag==2)
		CLOCK_alarm_flag=1;		
}
uint8_t CLOCK_alarm(uint8_t hour, uint8_t minute, uint8_t second)
{
	if(!CLOCK_alarm_flag){
    1840:	90 91 44 02 	lds	r25, 0x0244	; 0x800244 <CLOCK_alarm_flag>
    1844:	91 11       	cpse	r25, r1
    1846:	08 c0       	rjmp	.+16     	; 0x1858 <CLOCK_alarm+0x18>
		alarmtime.hour=hour;
    1848:	e5 e4       	ldi	r30, 0x45	; 69
    184a:	f2 e0       	ldi	r31, 0x02	; 2
    184c:	80 83       	st	Z, r24
		alarmtime.minute=minute;
    184e:	61 83       	std	Z+1, r22	; 0x01
		alarmtime.second=second;
    1850:	42 83       	std	Z+2, r20	; 0x02
		CLOCK_alarm_flag=4;
    1852:	84 e0       	ldi	r24, 0x04	; 4
    1854:	80 93 44 02 	sts	0x0244, r24	; 0x800244 <CLOCK_alarm_flag>
	}	
	return CLOCK_alarm_flag;
}
    1858:	80 91 44 02 	lds	r24, 0x0244	; 0x800244 <CLOCK_alarm_flag>
    185c:	08 95       	ret

0000185e <CLOCK_second_count>:
uint8_t CLOCK_second_count(uint16_t second)
{
    185e:	cf 92       	push	r12
    1860:	df 92       	push	r13
    1862:	ef 92       	push	r14
    1864:	ff 92       	push	r15
    1866:	0f 93       	push	r16
    1868:	1f 93       	push	r17
    186a:	cf 93       	push	r28
    186c:	df 93       	push	r29
    186e:	fc 01       	movw	r30, r24
	uint16_t tmp;
	uint8_t tmp_1;
	uint8_t tmp_2;
	uint8_t tmp_3;
	if(!CLOCK_compare_active){
    1870:	80 91 4e 02 	lds	r24, 0x024E	; 0x80024e <CLOCK_compare_active>
    1874:	81 11       	cpse	r24, r1
    1876:	65 c0       	rjmp	.+202    	; 0x1942 <CLOCK_second_count+0xe4>
		tmp_3=(int8_t)(second % 60);
		tmp=second/60;
		tmp_2=(int8_t)(tmp % 60);
		tmp=tmp/60;
		tmp_1=(int8_t)tmp;
		laptime.second=(time.second + tmp_3) % 60;
    1878:	9f 01       	movw	r18, r30
    187a:	a9 e8       	ldi	r26, 0x89	; 137
    187c:	b8 e8       	ldi	r27, 0x88	; 136
    187e:	0e 94 65 19 	call	0x32ca	; 0x32ca <__umulhisi3>
    1882:	6c 01       	movw	r12, r24
    1884:	d6 94       	lsr	r13
    1886:	c7 94       	ror	r12
    1888:	d6 94       	lsr	r13
    188a:	c7 94       	ror	r12
    188c:	d6 94       	lsr	r13
    188e:	c7 94       	ror	r12
    1890:	d6 94       	lsr	r13
    1892:	c7 94       	ror	r12
    1894:	d6 94       	lsr	r13
    1896:	c7 94       	ror	r12
    1898:	4c e3       	ldi	r20, 0x3C	; 60
    189a:	4c 9d       	mul	r20, r12
    189c:	c0 01       	movw	r24, r0
    189e:	4d 9d       	mul	r20, r13
    18a0:	90 0d       	add	r25, r0
    18a2:	11 24       	eor	r1, r1
    18a4:	28 1b       	sub	r18, r24
    18a6:	39 0b       	sbc	r19, r25
    18a8:	c8 e4       	ldi	r28, 0x48	; 72
    18aa:	d2 e0       	ldi	r29, 0x02	; 2
    18ac:	8a 81       	ldd	r24, Y+2	; 0x02
    18ae:	08 2e       	mov	r0, r24
    18b0:	00 0c       	add	r0, r0
    18b2:	99 0b       	sbc	r25, r25
    18b4:	82 0f       	add	r24, r18
    18b6:	91 1d       	adc	r25, r1
    18b8:	0b e4       	ldi	r16, 0x4B	; 75
    18ba:	12 e0       	ldi	r17, 0x02	; 2
    18bc:	0f 2e       	mov	r0, r31
    18be:	fc e3       	ldi	r31, 0x3C	; 60
    18c0:	ef 2e       	mov	r14, r31
    18c2:	f1 2c       	mov	r15, r1
    18c4:	f0 2d       	mov	r31, r0
    18c6:	b7 01       	movw	r22, r14
    18c8:	0e 94 0b 19 	call	0x3216	; 0x3216 <__divmodhi4>
    18cc:	56 2f       	mov	r21, r22
    18ce:	d8 01       	movw	r26, r16
    18d0:	12 96       	adiw	r26, 0x02	; 2
    18d2:	8c 93       	st	X, r24
		tmp_3=(time.second + tmp_3)/60;
		laptime.minute=(time.minute + tmp_2 + tmp_3) % 60;
    18d4:	96 01       	movw	r18, r12
    18d6:	a9 e8       	ldi	r26, 0x89	; 137
    18d8:	b8 e8       	ldi	r27, 0x88	; 136
    18da:	0e 94 65 19 	call	0x32ca	; 0x32ca <__umulhisi3>
    18de:	96 95       	lsr	r25
    18e0:	87 95       	ror	r24
    18e2:	92 95       	swap	r25
    18e4:	82 95       	swap	r24
    18e6:	8f 70       	andi	r24, 0x0F	; 15
    18e8:	89 27       	eor	r24, r25
    18ea:	9f 70       	andi	r25, 0x0F	; 15
    18ec:	89 27       	eor	r24, r25
    18ee:	48 9f       	mul	r20, r24
    18f0:	90 01       	movw	r18, r0
    18f2:	49 9f       	mul	r20, r25
    18f4:	30 0d       	add	r19, r0
    18f6:	11 24       	eor	r1, r1
    18f8:	c2 1a       	sub	r12, r18
    18fa:	d3 0a       	sbc	r13, r19
    18fc:	89 81       	ldd	r24, Y+1	; 0x01
    18fe:	08 2e       	mov	r0, r24
    1900:	00 0c       	add	r0, r0
    1902:	99 0b       	sbc	r25, r25
    1904:	8c 0d       	add	r24, r12
    1906:	91 1d       	adc	r25, r1
    1908:	85 0f       	add	r24, r21
    190a:	91 1d       	adc	r25, r1
    190c:	b7 01       	movw	r22, r14
    190e:	0e 94 0b 19 	call	0x3216	; 0x3216 <__divmodhi4>
    1912:	26 2f       	mov	r18, r22
    1914:	d8 01       	movw	r26, r16
    1916:	11 96       	adiw	r26, 0x01	; 1
    1918:	8c 93       	st	X, r24
		tmp_2=(time.minute + tmp_2 + tmp_3)/60;
		tmp_1=time.hour+ tmp_1 + tmp_2;
    191a:	cf 01       	movw	r24, r30
    191c:	60 e1       	ldi	r22, 0x10	; 16
    191e:	7e e0       	ldi	r23, 0x0E	; 14
    1920:	0e 94 f7 18 	call	0x31ee	; 0x31ee <__udivmodhi4>
    1924:	88 81       	ld	r24, Y
    1926:	68 0f       	add	r22, r24
    1928:	62 0f       	add	r22, r18
		if(tmp_1 > HORA)
    192a:	69 31       	cpi	r22, 0x19	; 25
    192c:	28 f0       	brcs	.+10     	; 0x1938 <CLOCK_second_count+0xda>
			laptime.hour=HORA-tmp_1;
    192e:	88 e1       	ldi	r24, 0x18	; 24
    1930:	86 1b       	sub	r24, r22
    1932:	80 93 4b 02 	sts	0x024B, r24	; 0x80024b <laptime>
    1936:	02 c0       	rjmp	.+4      	; 0x193c <CLOCK_second_count+0xde>
		else
			laptime.hour=tmp_1;
    1938:	60 93 4b 02 	sts	0x024B, r22	; 0x80024b <laptime>
		CLOCK_compare_active=4;
    193c:	84 e0       	ldi	r24, 0x04	; 4
    193e:	80 93 4e 02 	sts	0x024E, r24	; 0x80024e <CLOCK_compare_active>
	}
	return CLOCK_compare_active;
}
    1942:	80 91 4e 02 	lds	r24, 0x024E	; 0x80024e <CLOCK_compare_active>
    1946:	df 91       	pop	r29
    1948:	cf 91       	pop	r28
    194a:	1f 91       	pop	r17
    194c:	0f 91       	pop	r16
    194e:	ff 90       	pop	r15
    1950:	ef 90       	pop	r14
    1952:	df 90       	pop	r13
    1954:	cf 90       	pop	r12
    1956:	08 95       	ret

00001958 <CLOCK_alarm_reset>:
void CLOCK_alarm_reset(void)
{
	CLOCK_alarm_flag=0;
    1958:	10 92 44 02 	sts	0x0244, r1	; 0x800244 <CLOCK_alarm_flag>
    195c:	08 95       	ret

0000195e <CLOCK_alarm_stop>:
}
void CLOCK_alarm_stop(void)
{
	CLOCK_alarm_flag=0X0F;
    195e:	8f e0       	ldi	r24, 0x0F	; 15
    1960:	80 93 44 02 	sts	0x0244, r24	; 0x800244 <CLOCK_alarm_flag>
    1964:	08 95       	ret

00001966 <CLOCK_second_count_reset>:
}
void CLOCK_second_count_reset(void)
{
	CLOCK_compare_active=0;
    1966:	10 92 4e 02 	sts	0x024E, r1	; 0x80024e <CLOCK_compare_active>
    196a:	08 95       	ret

0000196c <CLOCK_second_count_stop>:
}
void CLOCK_second_count_stop(void)
{
	CLOCK_compare_active=0X0F;
    196c:	8f e0       	ldi	r24, 0x0F	; 15
    196e:	80 93 4e 02 	sts	0x024E, r24	; 0x80024e <CLOCK_compare_active>
    1972:	08 95       	ret

00001974 <CLOCK_show>:
}
char* CLOCK_show(void)
{
	uint8_t tmp;
	CLOCK_timp[8]='\0';
    1974:	eb e3       	ldi	r30, 0x3B	; 59
    1976:	f2 e0       	ldi	r31, 0x02	; 2
    1978:	10 86       	std	Z+8, r1	; 0x08
	CLOCK_timp[7]=time.second % 10 + '0';
    197a:	a8 e4       	ldi	r26, 0x48	; 72
    197c:	b2 e0       	ldi	r27, 0x02	; 2
    197e:	12 96       	adiw	r26, 0x02	; 2
    1980:	2c 91       	ld	r18, X
    1982:	12 97       	sbiw	r26, 0x02	; 2
    1984:	87 e6       	ldi	r24, 0x67	; 103
    1986:	28 02       	muls	r18, r24
    1988:	91 2d       	mov	r25, r1
    198a:	11 24       	eor	r1, r1
    198c:	95 95       	asr	r25
    198e:	95 95       	asr	r25
    1990:	27 fd       	sbrc	r18, 7
    1992:	93 95       	inc	r25
    1994:	49 2f       	mov	r20, r25
    1996:	44 0f       	add	r20, r20
    1998:	34 2f       	mov	r19, r20
    199a:	33 0f       	add	r19, r19
    199c:	33 0f       	add	r19, r19
    199e:	34 0f       	add	r19, r20
    19a0:	23 1b       	sub	r18, r19
    19a2:	20 5d       	subi	r18, 0xD0	; 208
    19a4:	27 83       	std	Z+7, r18	; 0x07
	tmp = time.second / 10;
	CLOCK_timp[6]=tmp % 10 + '0';
    19a6:	2d ec       	ldi	r18, 0xCD	; 205
    19a8:	92 9f       	mul	r25, r18
    19aa:	31 2d       	mov	r19, r1
    19ac:	11 24       	eor	r1, r1
    19ae:	36 95       	lsr	r19
    19b0:	36 95       	lsr	r19
    19b2:	36 95       	lsr	r19
    19b4:	33 0f       	add	r19, r19
    19b6:	43 2f       	mov	r20, r19
    19b8:	44 0f       	add	r20, r20
    19ba:	44 0f       	add	r20, r20
    19bc:	34 0f       	add	r19, r20
    19be:	93 1b       	sub	r25, r19
    19c0:	90 5d       	subi	r25, 0xD0	; 208
    19c2:	96 83       	std	Z+6, r25	; 0x06
	CLOCK_timp[5]=':';
    19c4:	5a e3       	ldi	r21, 0x3A	; 58
    19c6:	55 83       	std	Z+5, r21	; 0x05
	CLOCK_timp[4]=time.minute % 10 + '0';
    19c8:	11 96       	adiw	r26, 0x01	; 1
    19ca:	3c 91       	ld	r19, X
    19cc:	11 97       	sbiw	r26, 0x01	; 1
    19ce:	38 02       	muls	r19, r24
    19d0:	91 2d       	mov	r25, r1
    19d2:	11 24       	eor	r1, r1
    19d4:	95 95       	asr	r25
    19d6:	95 95       	asr	r25
    19d8:	37 fd       	sbrc	r19, 7
    19da:	93 95       	inc	r25
    19dc:	69 2f       	mov	r22, r25
    19de:	66 0f       	add	r22, r22
    19e0:	46 2f       	mov	r20, r22
    19e2:	44 0f       	add	r20, r20
    19e4:	44 0f       	add	r20, r20
    19e6:	46 0f       	add	r20, r22
    19e8:	34 1b       	sub	r19, r20
    19ea:	30 5d       	subi	r19, 0xD0	; 208
    19ec:	34 83       	std	Z+4, r19	; 0x04
	tmp = time.minute / 10;
	CLOCK_timp[3]=tmp % 10 + '0';
    19ee:	92 9f       	mul	r25, r18
    19f0:	31 2d       	mov	r19, r1
    19f2:	11 24       	eor	r1, r1
    19f4:	36 95       	lsr	r19
    19f6:	36 95       	lsr	r19
    19f8:	36 95       	lsr	r19
    19fa:	33 0f       	add	r19, r19
    19fc:	43 2f       	mov	r20, r19
    19fe:	44 0f       	add	r20, r20
    1a00:	44 0f       	add	r20, r20
    1a02:	34 0f       	add	r19, r20
    1a04:	93 1b       	sub	r25, r19
    1a06:	90 5d       	subi	r25, 0xD0	; 208
    1a08:	93 83       	std	Z+3, r25	; 0x03
	CLOCK_timp[2]=':';
    1a0a:	52 83       	std	Z+2, r21	; 0x02
	CLOCK_timp[1]=time.hour % 10 + '0';
    1a0c:	9c 91       	ld	r25, X
    1a0e:	98 02       	muls	r25, r24
    1a10:	81 2d       	mov	r24, r1
    1a12:	11 24       	eor	r1, r1
    1a14:	85 95       	asr	r24
    1a16:	85 95       	asr	r24
    1a18:	97 fd       	sbrc	r25, 7
    1a1a:	83 95       	inc	r24
    1a1c:	48 2f       	mov	r20, r24
    1a1e:	44 0f       	add	r20, r20
    1a20:	34 2f       	mov	r19, r20
    1a22:	33 0f       	add	r19, r19
    1a24:	33 0f       	add	r19, r19
    1a26:	34 0f       	add	r19, r20
    1a28:	93 1b       	sub	r25, r19
    1a2a:	90 5d       	subi	r25, 0xD0	; 208
    1a2c:	91 83       	std	Z+1, r25	; 0x01
	tmp = time.hour / 10;
	CLOCK_timp[0]=tmp % 10 + '0';
    1a2e:	82 9f       	mul	r24, r18
    1a30:	21 2d       	mov	r18, r1
    1a32:	11 24       	eor	r1, r1
    1a34:	26 95       	lsr	r18
    1a36:	26 95       	lsr	r18
    1a38:	26 95       	lsr	r18
    1a3a:	22 0f       	add	r18, r18
    1a3c:	92 2f       	mov	r25, r18
    1a3e:	99 0f       	add	r25, r25
    1a40:	99 0f       	add	r25, r25
    1a42:	29 0f       	add	r18, r25
    1a44:	82 1b       	sub	r24, r18
    1a46:	80 5d       	subi	r24, 0xD0	; 208
    1a48:	80 83       	st	Z, r24
	return CLOCK_timp;
}
    1a4a:	cf 01       	movw	r24, r30
    1a4c:	08 95       	ret

00001a4e <CLOCKenable>:
char* CLOCK_show(void);
/*
** procedure and function
*/
CLOCK CLOCKenable(uint8_t hour, uint8_t minute, uint8_t second)
{
    1a4e:	fc 01       	movw	r30, r24
	CLOCK clock;
	time.hour=hour;
    1a50:	a8 e4       	ldi	r26, 0x48	; 72
    1a52:	b2 e0       	ldi	r27, 0x02	; 2
    1a54:	6c 93       	st	X, r22
	time.minute=minute;
    1a56:	11 96       	adiw	r26, 0x01	; 1
    1a58:	4c 93       	st	X, r20
    1a5a:	11 97       	sbiw	r26, 0x01	; 1
	time.second=second;
    1a5c:	12 96       	adiw	r26, 0x02	; 2
    1a5e:	2c 93       	st	X, r18
	CLOCK_alarm_flag=0X0F;
    1a60:	8f e0       	ldi	r24, 0x0F	; 15
    1a62:	80 93 44 02 	sts	0x0244, r24	; 0x800244 <CLOCK_alarm_flag>
	CLOCK_compare_active=0X0F;
    1a66:	80 93 4e 02 	sts	0x024E, r24	; 0x80024e <CLOCK_compare_active>
	clock.second_count_reset=CLOCK_second_count_reset;
	clock.second_count_stop=CLOCK_second_count_stop;
	clock.alarm_reset=CLOCK_alarm_reset;
	clock.alarm_stop=CLOCK_alarm_stop;
	clock.show=CLOCK_show;
	return clock;
    1a6a:	8a e3       	ldi	r24, 0x3A	; 58
    1a6c:	9b e0       	ldi	r25, 0x0B	; 11
    1a6e:	91 83       	std	Z+1, r25	; 0x01
    1a70:	80 83       	st	Z, r24
    1a72:	80 e4       	ldi	r24, 0x40	; 64
    1a74:	9b e0       	ldi	r25, 0x0B	; 11
    1a76:	93 83       	std	Z+3, r25	; 0x03
    1a78:	82 83       	std	Z+2, r24	; 0x02
    1a7a:	8a ec       	ldi	r24, 0xCA	; 202
    1a7c:	9b e0       	ldi	r25, 0x0B	; 11
    1a7e:	95 83       	std	Z+5, r25	; 0x05
    1a80:	84 83       	std	Z+4, r24	; 0x04
    1a82:	80 e2       	ldi	r24, 0x20	; 32
    1a84:	9c e0       	ldi	r25, 0x0C	; 12
    1a86:	97 83       	std	Z+7, r25	; 0x07
    1a88:	86 83       	std	Z+6, r24	; 0x06
    1a8a:	8f e2       	ldi	r24, 0x2F	; 47
    1a8c:	9c e0       	ldi	r25, 0x0C	; 12
    1a8e:	91 87       	std	Z+9, r25	; 0x09
    1a90:	80 87       	std	Z+8, r24	; 0x08
    1a92:	83 eb       	ldi	r24, 0xB3	; 179
    1a94:	9c e0       	ldi	r25, 0x0C	; 12
    1a96:	93 87       	std	Z+11, r25	; 0x0b
    1a98:	82 87       	std	Z+10, r24	; 0x0a
    1a9a:	86 eb       	ldi	r24, 0xB6	; 182
    1a9c:	9c e0       	ldi	r25, 0x0C	; 12
    1a9e:	95 87       	std	Z+13, r25	; 0x0d
    1aa0:	84 87       	std	Z+12, r24	; 0x0c
    1aa2:	8c ea       	ldi	r24, 0xAC	; 172
    1aa4:	9c e0       	ldi	r25, 0x0C	; 12
    1aa6:	97 87       	std	Z+15, r25	; 0x0f
    1aa8:	86 87       	std	Z+14, r24	; 0x0e
    1aaa:	8f ea       	ldi	r24, 0xAF	; 175
    1aac:	9c e0       	ldi	r25, 0x0C	; 12
    1aae:	91 8b       	std	Z+17, r25	; 0x11
    1ab0:	80 8b       	std	Z+16, r24	; 0x10
    1ab2:	8a eb       	ldi	r24, 0xBA	; 186
    1ab4:	9c e0       	ldi	r25, 0x0C	; 12
    1ab6:	93 8b       	std	Z+19, r25	; 0x13
    1ab8:	82 8b       	std	Z+18, r24	; 0x12
}
    1aba:	cf 01       	movw	r24, r30
    1abc:	08 95       	ret

00001abe <FUNCpinmatch>:
}
//pinmatch
uint8_t FUNCpinmatch(uint8_t match, uint8_t pin, uint8_t HL)
{
	uint8_t result;
	result=match&pin;
    1abe:	68 23       	and	r22, r24
	if(HL){
    1ac0:	44 23       	and	r20, r20
    1ac2:	21 f0       	breq	.+8      	; 0x1acc <FUNCpinmatch+0xe>
		if(result==match);
    1ac4:	86 17       	cp	r24, r22
    1ac6:	21 f0       	breq	.+8      	; 0x1ad0 <FUNCpinmatch+0x12>
		else
			result=0;
    1ac8:	80 e0       	ldi	r24, 0x00	; 0
    1aca:	08 95       	ret
	}else{
		if(result)
    1acc:	61 11       	cpse	r22, r1
			result=0;
    1ace:	80 e0       	ldi	r24, 0x00	; 0
		else
			result=match;
	}
	return result;
}
    1ad0:	08 95       	ret

00001ad2 <FUNChmerge>:
// hmerge
uint8_t FUNChmerge(uint8_t X, uint8_t Y)
{
	return (X | Y);
}
    1ad2:	86 2b       	or	r24, r22
    1ad4:	08 95       	ret

00001ad6 <FUNClmerge>:
// lmerge
uint8_t FUNClmerge(uint8_t X, uint8_t Y)
{
	return (X & Y);
}
    1ad6:	86 23       	and	r24, r22
    1ad8:	08 95       	ret

00001ada <FUNChh>:
uint8_t FUNChh(uint8_t xi, uint8_t xf)
{
	uint8_t i;
	i=xi&xf;
	return i;
}
    1ada:	86 23       	and	r24, r22
    1adc:	08 95       	ret

00001ade <FUNCll>:
// ll
uint8_t FUNCll(uint8_t xi, uint8_t xf)
{
	uint8_t i;
	i=xi|xf;
	return ~i;
    1ade:	86 2b       	or	r24, r22
}
    1ae0:	80 95       	com	r24
    1ae2:	08 95       	ret

00001ae4 <FUNClh>:
// lh
uint8_t FUNClh(uint8_t xi, uint8_t xf)
{
	uint8_t i;
	i=xi^xf;
    1ae4:	86 27       	eor	r24, r22
	i&=xf;
	return i;
}
    1ae6:	86 23       	and	r24, r22
    1ae8:	08 95       	ret

00001aea <FUNChl>:
// hl
uint8_t FUNChl(uint8_t xi, uint8_t xf)
{
	uint8_t i;
	i=xf^xi;
    1aea:	60 95       	com	r22
	i&=xi;
	return i;
}
    1aec:	86 23       	and	r24, r22
    1aee:	08 95       	ret

00001af0 <FUNCdiff>:
// diff
uint8_t FUNCdiff(uint8_t xi, uint8_t xf)
{
	return xf^xi;
}
    1af0:	86 27       	eor	r24, r22
    1af2:	08 95       	ret

00001af4 <FUNCswap>:
// interchange *px and *py
void FUNCswap(long *px, long *py)
{
    1af4:	cf 92       	push	r12
    1af6:	df 92       	push	r13
    1af8:	ef 92       	push	r14
    1afa:	ff 92       	push	r15
    1afc:	0f 93       	push	r16
    1afe:	1f 93       	push	r17
	long temp;
	temp = *px;
    1b00:	fc 01       	movw	r30, r24
    1b02:	00 81       	ld	r16, Z
    1b04:	11 81       	ldd	r17, Z+1	; 0x01
    1b06:	22 81       	ldd	r18, Z+2	; 0x02
    1b08:	33 81       	ldd	r19, Z+3	; 0x03
	*px = *py;
    1b0a:	fb 01       	movw	r30, r22
    1b0c:	c0 80       	ld	r12, Z
    1b0e:	d1 80       	ldd	r13, Z+1	; 0x01
    1b10:	e2 80       	ldd	r14, Z+2	; 0x02
    1b12:	f3 80       	ldd	r15, Z+3	; 0x03
    1b14:	fc 01       	movw	r30, r24
    1b16:	c0 82       	st	Z, r12
    1b18:	d1 82       	std	Z+1, r13	; 0x01
    1b1a:	e2 82       	std	Z+2, r14	; 0x02
    1b1c:	f3 82       	std	Z+3, r15	; 0x03
	*py = temp;
    1b1e:	fb 01       	movw	r30, r22
    1b20:	00 83       	st	Z, r16
    1b22:	11 83       	std	Z+1, r17	; 0x01
    1b24:	22 83       	std	Z+2, r18	; 0x02
    1b26:	33 83       	std	Z+3, r19	; 0x03
}
    1b28:	1f 91       	pop	r17
    1b2a:	0f 91       	pop	r16
    1b2c:	ff 90       	pop	r15
    1b2e:	ef 90       	pop	r14
    1b30:	df 90       	pop	r13
    1b32:	cf 90       	pop	r12
    1b34:	08 95       	ret

00001b36 <FUNCcopy>:
// copy: copy 'from' into 'to'; assume to is big enough
void FUNCcopy(char to[], char from[])
{
	int i;
	i = 0;
	while ((to[i] = from[i]) != '\0')
    1b36:	fb 01       	movw	r30, r22
    1b38:	20 81       	ld	r18, Z
    1b3a:	fc 01       	movw	r30, r24
    1b3c:	20 83       	st	Z, r18
    1b3e:	22 23       	and	r18, r18
    1b40:	39 f0       	breq	.+14     	; 0x1b50 <FUNCcopy+0x1a>
    1b42:	db 01       	movw	r26, r22
    1b44:	11 96       	adiw	r26, 0x01	; 1
    1b46:	31 96       	adiw	r30, 0x01	; 1
    1b48:	9d 91       	ld	r25, X+
    1b4a:	91 93       	st	Z+, r25
    1b4c:	91 11       	cpse	r25, r1
    1b4e:	fc cf       	rjmp	.-8      	; 0x1b48 <FUNCcopy+0x12>
    1b50:	08 95       	ret

00001b52 <FUNCsqueeze>:
		++i;
}
// squeeze: delete all c from s
void FUNCsqueeze(char s[], int c)
{
    1b52:	cf 93       	push	r28
    1b54:	df 93       	push	r29
    1b56:	ec 01       	movw	r28, r24
	int i, j;
	for (i = j = 0; s[i] != '\0'; i++)
    1b58:	98 81       	ld	r25, Y
    1b5a:	99 23       	and	r25, r25
    1b5c:	99 f0       	breq	.+38     	; 0x1b84 <FUNCsqueeze+0x32>
    1b5e:	fe 01       	movw	r30, r28
    1b60:	31 96       	adiw	r30, 0x01	; 1
    1b62:	20 e0       	ldi	r18, 0x00	; 0
    1b64:	30 e0       	ldi	r19, 0x00	; 0
		if (s[i] != c)
    1b66:	49 2f       	mov	r20, r25
    1b68:	50 e0       	ldi	r21, 0x00	; 0
    1b6a:	46 17       	cp	r20, r22
    1b6c:	57 07       	cpc	r21, r23
    1b6e:	31 f0       	breq	.+12     	; 0x1b7c <FUNCsqueeze+0x2a>
			s[j++] = s[i];
    1b70:	de 01       	movw	r26, r28
    1b72:	a2 0f       	add	r26, r18
    1b74:	b3 1f       	adc	r27, r19
    1b76:	9c 93       	st	X, r25
    1b78:	2f 5f       	subi	r18, 0xFF	; 255
    1b7a:	3f 4f       	sbci	r19, 0xFF	; 255
}
// squeeze: delete all c from s
void FUNCsqueeze(char s[], int c)
{
	int i, j;
	for (i = j = 0; s[i] != '\0'; i++)
    1b7c:	91 91       	ld	r25, Z+
    1b7e:	91 11       	cpse	r25, r1
    1b80:	f2 cf       	rjmp	.-28     	; 0x1b66 <FUNCsqueeze+0x14>
    1b82:	02 c0       	rjmp	.+4      	; 0x1b88 <FUNCsqueeze+0x36>
    1b84:	20 e0       	ldi	r18, 0x00	; 0
    1b86:	30 e0       	ldi	r19, 0x00	; 0
		if (s[i] != c)
			s[j++] = s[i];
		s[j] = '\0';
    1b88:	fe 01       	movw	r30, r28
    1b8a:	e2 0f       	add	r30, r18
    1b8c:	f3 1f       	adc	r31, r19
    1b8e:	10 82       	st	Z, r1
}
    1b90:	df 91       	pop	r29
    1b92:	cf 91       	pop	r28
    1b94:	08 95       	ret

00001b96 <FUNCshellsort>:
// shellsort: sort v[0]...v[n-1] into increasing order
void FUNCshellsort(int v[], int n)
{
    1b96:	2f 92       	push	r2
    1b98:	3f 92       	push	r3
    1b9a:	4f 92       	push	r4
    1b9c:	5f 92       	push	r5
    1b9e:	6f 92       	push	r6
    1ba0:	7f 92       	push	r7
    1ba2:	8f 92       	push	r8
    1ba4:	9f 92       	push	r9
    1ba6:	af 92       	push	r10
    1ba8:	bf 92       	push	r11
    1baa:	cf 92       	push	r12
    1bac:	df 92       	push	r13
    1bae:	ef 92       	push	r14
    1bb0:	ff 92       	push	r15
    1bb2:	0f 93       	push	r16
    1bb4:	1f 93       	push	r17
    1bb6:	cf 93       	push	r28
    1bb8:	df 93       	push	r29
    1bba:	00 d0       	rcall	.+0      	; 0x1bbc <FUNCshellsort+0x26>
    1bbc:	00 d0       	rcall	.+0      	; 0x1bbe <FUNCshellsort+0x28>
    1bbe:	cd b7       	in	r28, 0x3d	; 61
    1bc0:	de b7       	in	r29, 0x3e	; 62
    1bc2:	2c 01       	movw	r4, r24
    1bc4:	1b 01       	movw	r2, r22
	int gap, i, j, temp;
	for (gap = n/2; gap > 0; gap /= 2)
    1bc6:	4b 01       	movw	r8, r22
    1bc8:	77 23       	and	r23, r23
    1bca:	1c f4       	brge	.+6      	; 0x1bd2 <FUNCshellsort+0x3c>
    1bcc:	2f ef       	ldi	r18, 0xFF	; 255
    1bce:	82 1a       	sub	r8, r18
    1bd0:	92 0a       	sbc	r9, r18
    1bd2:	95 94       	asr	r9
    1bd4:	87 94       	ror	r8
    1bd6:	18 14       	cp	r1, r8
    1bd8:	19 04       	cpc	r1, r9
    1bda:	0c f4       	brge	.+2      	; 0x1bde <FUNCshellsort+0x48>
    1bdc:	51 c0       	rjmp	.+162    	; 0x1c80 <FUNCshellsort+0xea>
    1bde:	6a c0       	rjmp	.+212    	; 0x1cb4 <FUNCshellsort+0x11e>
		for (i = gap; i < n; i++)
			for (j=i-gap; j>=0 && v[j]>v[j+gap]; j-=gap){
    1be0:	96 01       	movw	r18, r12
    1be2:	dd 20       	and	r13, r13
    1be4:	9c f1       	brlt	.+102    	; 0x1c4c <FUNCshellsort+0xb6>
    1be6:	f5 01       	movw	r30, r10
    1be8:	40 81       	ld	r20, Z
    1bea:	51 81       	ldd	r21, Z+1	; 0x01
    1bec:	f4 01       	movw	r30, r8
    1bee:	60 81       	ld	r22, Z
    1bf0:	71 81       	ldd	r23, Z+1	; 0x01
    1bf2:	64 17       	cp	r22, r20
    1bf4:	75 07       	cpc	r23, r21
    1bf6:	54 f5       	brge	.+84     	; 0x1c4c <FUNCshellsort+0xb6>
    1bf8:	8c 01       	movw	r16, r24
    1bfa:	0a 0d       	add	r16, r10
    1bfc:	1b 1d       	adc	r17, r11
    1bfe:	d4 01       	movw	r26, r8
    1c00:	bc 82       	std	Y+4, r11	; 0x04
    1c02:	ab 82       	std	Y+3, r10	; 0x03
    1c04:	ba 82       	std	Y+2, r11	; 0x02
    1c06:	a9 82       	std	Y+1, r10	; 0x01
				temp = v[j];
				v[j] = v[j+gap];
    1c08:	eb 81       	ldd	r30, Y+3	; 0x03
    1c0a:	fc 81       	ldd	r31, Y+4	; 0x04
    1c0c:	71 83       	std	Z+1, r23	; 0x01
    1c0e:	60 83       	st	Z, r22
				v[j+gap] = temp;
    1c10:	11 96       	adiw	r26, 0x01	; 1
    1c12:	5c 93       	st	X, r21
    1c14:	4e 93       	st	-X, r20
void FUNCshellsort(int v[], int n)
{
	int gap, i, j, temp;
	for (gap = n/2; gap > 0; gap /= 2)
		for (i = gap; i < n; i++)
			for (j=i-gap; j>=0 && v[j]>v[j+gap]; j-=gap){
    1c16:	2e 19       	sub	r18, r14
    1c18:	3f 09       	sbc	r19, r15
    1c1a:	c2 f0       	brmi	.+48     	; 0x1c4c <FUNCshellsort+0xb6>
    1c1c:	f8 01       	movw	r30, r16
    1c1e:	40 81       	ld	r20, Z
    1c20:	51 81       	ldd	r21, Z+1	; 0x01
    1c22:	e9 81       	ldd	r30, Y+1	; 0x01
    1c24:	fa 81       	ldd	r31, Y+2	; 0x02
    1c26:	60 81       	ld	r22, Z
    1c28:	71 81       	ldd	r23, Z+1	; 0x01
    1c2a:	08 0f       	add	r16, r24
    1c2c:	19 1f       	adc	r17, r25
    1c2e:	e8 0f       	add	r30, r24
    1c30:	f9 1f       	adc	r31, r25
    1c32:	fa 83       	std	Y+2, r31	; 0x02
    1c34:	e9 83       	std	Y+1, r30	; 0x01
    1c36:	eb 81       	ldd	r30, Y+3	; 0x03
    1c38:	fc 81       	ldd	r31, Y+4	; 0x04
    1c3a:	e8 0f       	add	r30, r24
    1c3c:	f9 1f       	adc	r31, r25
    1c3e:	fc 83       	std	Y+4, r31	; 0x04
    1c40:	eb 83       	std	Y+3, r30	; 0x03
    1c42:	a8 0f       	add	r26, r24
    1c44:	b9 1f       	adc	r27, r25
    1c46:	64 17       	cp	r22, r20
    1c48:	75 07       	cpc	r23, r21
    1c4a:	f4 f2       	brlt	.-68     	; 0x1c08 <FUNCshellsort+0x72>
    1c4c:	ff ef       	ldi	r31, 0xFF	; 255
    1c4e:	cf 1a       	sub	r12, r31
    1c50:	df 0a       	sbc	r13, r31
    1c52:	22 e0       	ldi	r18, 0x02	; 2
    1c54:	a2 0e       	add	r10, r18
    1c56:	b1 1c       	adc	r11, r1
    1c58:	e2 e0       	ldi	r30, 0x02	; 2
    1c5a:	8e 0e       	add	r8, r30
    1c5c:	91 1c       	adc	r9, r1
// shellsort: sort v[0]...v[n-1] into increasing order
void FUNCshellsort(int v[], int n)
{
	int gap, i, j, temp;
	for (gap = n/2; gap > 0; gap /= 2)
		for (i = gap; i < n; i++)
    1c5e:	c6 14       	cp	r12, r6
    1c60:	d7 04       	cpc	r13, r7
    1c62:	09 f0       	breq	.+2      	; 0x1c66 <FUNCshellsort+0xd0>
    1c64:	bd cf       	rjmp	.-134    	; 0x1be0 <FUNCshellsort+0x4a>
}
// shellsort: sort v[0]...v[n-1] into increasing order
void FUNCshellsort(int v[], int n)
{
	int gap, i, j, temp;
	for (gap = n/2; gap > 0; gap /= 2)
    1c66:	47 01       	movw	r8, r14
    1c68:	ff 20       	and	r15, r15
    1c6a:	1c f4       	brge	.+6      	; 0x1c72 <FUNCshellsort+0xdc>
    1c6c:	ff ef       	ldi	r31, 0xFF	; 255
    1c6e:	8f 1a       	sub	r8, r31
    1c70:	9f 0a       	sbc	r9, r31
    1c72:	95 94       	asr	r9
    1c74:	87 94       	ror	r8
    1c76:	18 14       	cp	r1, r8
    1c78:	19 04       	cpc	r1, r9
    1c7a:	e4 f4       	brge	.+56     	; 0x1cb4 <FUNCshellsort+0x11e>
    1c7c:	74 01       	movw	r14, r8
    1c7e:	01 c0       	rjmp	.+2      	; 0x1c82 <FUNCshellsort+0xec>
    1c80:	74 01       	movw	r14, r8
		for (i = gap; i < n; i++)
    1c82:	82 14       	cp	r8, r2
    1c84:	93 04       	cpc	r9, r3
    1c86:	7c f7       	brge	.-34     	; 0x1c66 <FUNCshellsort+0xd0>
    1c88:	64 01       	movw	r12, r8
    1c8a:	ce 18       	sub	r12, r14
    1c8c:	df 08       	sbc	r13, r15
    1c8e:	56 01       	movw	r10, r12
    1c90:	aa 0c       	add	r10, r10
    1c92:	bb 1c       	adc	r11, r11
    1c94:	a4 0c       	add	r10, r4
    1c96:	b5 1c       	adc	r11, r5
    1c98:	88 0c       	add	r8, r8
    1c9a:	99 1c       	adc	r9, r9
    1c9c:	84 0c       	add	r8, r4
    1c9e:	95 1c       	adc	r9, r5
    1ca0:	31 01       	movw	r6, r2
    1ca2:	6e 18       	sub	r6, r14
    1ca4:	7f 08       	sbc	r7, r15
    1ca6:	c7 01       	movw	r24, r14
    1ca8:	88 0f       	add	r24, r24
    1caa:	99 1f       	adc	r25, r25
    1cac:	91 95       	neg	r25
    1cae:	81 95       	neg	r24
    1cb0:	91 09       	sbc	r25, r1
    1cb2:	96 cf       	rjmp	.-212    	; 0x1be0 <FUNCshellsort+0x4a>
			for (j=i-gap; j>=0 && v[j]>v[j+gap]; j-=gap){
				temp = v[j];
				v[j] = v[j+gap];
				v[j+gap] = temp;
			}
}
    1cb4:	0f 90       	pop	r0
    1cb6:	0f 90       	pop	r0
    1cb8:	0f 90       	pop	r0
    1cba:	0f 90       	pop	r0
    1cbc:	df 91       	pop	r29
    1cbe:	cf 91       	pop	r28
    1cc0:	1f 91       	pop	r17
    1cc2:	0f 91       	pop	r16
    1cc4:	ff 90       	pop	r15
    1cc6:	ef 90       	pop	r14
    1cc8:	df 90       	pop	r13
    1cca:	cf 90       	pop	r12
    1ccc:	bf 90       	pop	r11
    1cce:	af 90       	pop	r10
    1cd0:	9f 90       	pop	r9
    1cd2:	8f 90       	pop	r8
    1cd4:	7f 90       	pop	r7
    1cd6:	6f 90       	pop	r6
    1cd8:	5f 90       	pop	r5
    1cda:	4f 90       	pop	r4
    1cdc:	3f 90       	pop	r3
    1cde:	2f 90       	pop	r2
    1ce0:	08 95       	ret

00001ce2 <FUNCpmax>:
	if(a1 > a2){
		biggest = a1;
	}else{
		biggest = a2;
	}
	return biggest;
    1ce2:	86 17       	cp	r24, r22
    1ce4:	97 07       	cpc	r25, r23
    1ce6:	0c f4       	brge	.+2      	; 0x1cea <FUNCpmax+0x8>
    1ce8:	cb 01       	movw	r24, r22
}
    1cea:	08 95       	ret

00001cec <FUNCgcd>:
// common divisor
int FUNCgcd (int u, int v)
{
    1cec:	9b 01       	movw	r18, r22
	int temp;
	while ( v != 0 ) {
    1cee:	67 2b       	or	r22, r23
    1cf0:	11 f4       	brne	.+4      	; 0x1cf6 <FUNCgcd+0xa>
    1cf2:	08 95       	ret
		temp = u % v;
		u = v;
		v = temp;
    1cf4:	9a 01       	movw	r18, r20
// common divisor
int FUNCgcd (int u, int v)
{
	int temp;
	while ( v != 0 ) {
		temp = u % v;
    1cf6:	b9 01       	movw	r22, r18
    1cf8:	0e 94 0b 19 	call	0x3216	; 0x3216 <__divmodhi4>
    1cfc:	ac 01       	movw	r20, r24
    1cfe:	82 2f       	mov	r24, r18
    1d00:	93 2f       	mov	r25, r19
}
// common divisor
int FUNCgcd (int u, int v)
{
	int temp;
	while ( v != 0 ) {
    1d02:	41 15       	cp	r20, r1
    1d04:	51 05       	cpc	r21, r1
    1d06:	b1 f7       	brne	.-20     	; 0x1cf4 <FUNCgcd+0x8>
		temp = u % v;
		u = v;
		v = temp;
	}
	return u;
}
    1d08:	08 95       	ret

00001d0a <FUNCstrToInt>:
// Function to convert a string to an integer
int FUNCstrToInt (const char string[])
{
    1d0a:	fc 01       	movw	r30, r24
	int i, intValue, result = 0;
	for ( i = 0; string[i] >= '0' && string[i] <= '9'; ++i ){
    1d0c:	90 81       	ld	r25, Z
    1d0e:	80 ed       	ldi	r24, 0xD0	; 208
    1d10:	89 0f       	add	r24, r25
    1d12:	8a 30       	cpi	r24, 0x0A	; 10
    1d14:	d0 f4       	brcc	.+52     	; 0x1d4a <FUNCstrToInt+0x40>
    1d16:	31 96       	adiw	r30, 0x01	; 1
    1d18:	20 e0       	ldi	r18, 0x00	; 0
    1d1a:	30 e0       	ldi	r19, 0x00	; 0
		intValue = string[i] - '0';
		result = result * 10 + intValue;
    1d1c:	a9 01       	movw	r20, r18
    1d1e:	44 0f       	add	r20, r20
    1d20:	55 1f       	adc	r21, r21
    1d22:	22 0f       	add	r18, r18
    1d24:	33 1f       	adc	r19, r19
    1d26:	22 0f       	add	r18, r18
    1d28:	33 1f       	adc	r19, r19
    1d2a:	22 0f       	add	r18, r18
    1d2c:	33 1f       	adc	r19, r19
    1d2e:	42 0f       	add	r20, r18
    1d30:	53 1f       	adc	r21, r19
    1d32:	29 2f       	mov	r18, r25
    1d34:	30 e0       	ldi	r19, 0x00	; 0
    1d36:	20 53       	subi	r18, 0x30	; 48
    1d38:	31 09       	sbc	r19, r1
    1d3a:	24 0f       	add	r18, r20
    1d3c:	35 1f       	adc	r19, r21
}
// Function to convert a string to an integer
int FUNCstrToInt (const char string[])
{
	int i, intValue, result = 0;
	for ( i = 0; string[i] >= '0' && string[i] <= '9'; ++i ){
    1d3e:	91 91       	ld	r25, Z+
    1d40:	80 ed       	ldi	r24, 0xD0	; 208
    1d42:	89 0f       	add	r24, r25
    1d44:	8a 30       	cpi	r24, 0x0A	; 10
    1d46:	50 f3       	brcs	.-44     	; 0x1d1c <FUNCstrToInt+0x12>
    1d48:	02 c0       	rjmp	.+4      	; 0x1d4e <FUNCstrToInt+0x44>
	return u;
}
// Function to convert a string to an integer
int FUNCstrToInt (const char string[])
{
	int i, intValue, result = 0;
    1d4a:	20 e0       	ldi	r18, 0x00	; 0
    1d4c:	30 e0       	ldi	r19, 0x00	; 0
	for ( i = 0; string[i] >= '0' && string[i] <= '9'; ++i ){
		intValue = string[i] - '0';
		result = result * 10 + intValue;
	}
	return result;
}
    1d4e:	c9 01       	movw	r24, r18
    1d50:	08 95       	ret

00001d52 <FUNCfilter>:
uint8_t FUNCfilter(uint8_t mask, uint8_t data)
{
	uint8_t Z;
	Z=mask & data;
	return Z;
}
    1d52:	86 23       	and	r24, r22
    1d54:	08 95       	ret

00001d56 <FUNCticks>:
// ticks
unsigned int FUNCticks(unsigned int num)
{
	unsigned int count;
	for(count=0;count<num;count++)
    1d56:	00 97       	sbiw	r24, 0x00	; 0
    1d58:	39 f0       	breq	.+14     	; 0x1d68 <FUNCticks+0x12>
    1d5a:	20 e0       	ldi	r18, 0x00	; 0
    1d5c:	30 e0       	ldi	r19, 0x00	; 0
    1d5e:	2f 5f       	subi	r18, 0xFF	; 255
    1d60:	3f 4f       	sbci	r19, 0xFF	; 255
    1d62:	82 17       	cp	r24, r18
    1d64:	93 07       	cpc	r25, r19
    1d66:	d9 f7       	brne	.-10     	; 0x1d5e <FUNCticks+0x8>
		;
	return count;
}
    1d68:	08 95       	ret

00001d6a <FUNCtwocomptoint8bit>:
// Two's Complement function
int FUNCtwocomptoint8bit(int twoscomp){
  
  //Let's see if the byte is negative
  if (twoscomp & 0B10000000){
    1d6a:	87 ff       	sbrs	r24, 7
    1d6c:	08 c0       	rjmp	.+16     	; 0x1d7e <FUNCtwocomptoint8bit+0x14>
    //Invert
    twoscomp = ~twoscomp + 1;
    1d6e:	91 95       	neg	r25
    1d70:	81 95       	neg	r24
    1d72:	91 09       	sbc	r25, r1
	twoscomp = (twoscomp & 0B11111111);
    //Cast as int and multiply by negative one
    int value = (int)(twoscomp)*(-1);
    1d74:	99 27       	eor	r25, r25
    1d76:	91 95       	neg	r25
    1d78:	81 95       	neg	r24
    1d7a:	91 09       	sbc	r25, r1
    return value;
    1d7c:	08 95       	ret
    //Byte is non-negative, therefore convert to decimal and display
    //Make sure we are never over 1279
    twoscomp = (twoscomp & 0B01111111);
    //Cast as int and return
    int value = (int)(twoscomp);
    return value;
    1d7e:	8f 77       	andi	r24, 0x7F	; 127
    1d80:	99 27       	eor	r25, r25
  }
}
    1d82:	08 95       	ret

00001d84 <FUNCtwocomptoint10bit>:
// Two's Complement function, shifts 10 bit binary to signed integers (-512 to 512)
int FUNCtwocomptoint10bit(int twoscomp){
	
  //Let's see if the byte is negative
  if (twoscomp & 0x200){
    1d84:	91 ff       	sbrs	r25, 1
    1d86:	08 c0       	rjmp	.+16     	; 0x1d98 <FUNCtwocomptoint10bit+0x14>
    //Invert
    twoscomp = ~twoscomp + 1;
    1d88:	91 95       	neg	r25
    1d8a:	81 95       	neg	r24
    1d8c:	91 09       	sbc	r25, r1
    twoscomp = (twoscomp & 0x3FF);
    //Cast as int and multiply by negative one
    int value = (int)(twoscomp)*(-1);
    1d8e:	93 70       	andi	r25, 0x03	; 3
    1d90:	91 95       	neg	r25
    1d92:	81 95       	neg	r24
    1d94:	91 09       	sbc	r25, r1
    return value;
    1d96:	08 95       	ret
    //Byte is non-negative, therefore convert to decimal and display
    twoscomp = (twoscomp & 0x1FF);
    //Cast as int and return
    //Serial.println(twoscomp);
    int value = (int)(twoscomp);
    return value;
    1d98:	91 70       	andi	r25, 0x01	; 1
  }
}
    1d9a:	08 95       	ret

00001d9c <FUNCtwocomptointnbit>:
// Two's Complement function, nbits
int FUNCtwocomptointnbit(int twoscomp, uint8_t nbits){
  unsigned int signmask;
  unsigned int mask;
  signmask = (1<<(nbits-1));
    1d9c:	61 50       	subi	r22, 0x01	; 1
    1d9e:	21 e0       	ldi	r18, 0x01	; 1
    1da0:	30 e0       	ldi	r19, 0x00	; 0
    1da2:	02 c0       	rjmp	.+4      	; 0x1da8 <FUNCtwocomptointnbit+0xc>
    1da4:	22 0f       	add	r18, r18
    1da6:	33 1f       	adc	r19, r19
    1da8:	6a 95       	dec	r22
    1daa:	e2 f7       	brpl	.-8      	; 0x1da4 <FUNCtwocomptointnbit+0x8>
  mask=signmask-1;
    1dac:	a9 01       	movw	r20, r18
    1dae:	41 50       	subi	r20, 0x01	; 1
    1db0:	51 09       	sbc	r21, r1
  //Let's see if the number is negative
  if (twoscomp & signmask){
    1db2:	b9 01       	movw	r22, r18
    1db4:	68 23       	and	r22, r24
    1db6:	79 23       	and	r23, r25
    1db8:	67 2b       	or	r22, r23
    1dba:	29 f0       	breq	.+10     	; 0x1dc6 <FUNCtwocomptointnbit+0x2a>
	twoscomp &= mask;
    twoscomp -= signmask;
    1dbc:	84 23       	and	r24, r20
    1dbe:	95 23       	and	r25, r21
    1dc0:	82 1b       	sub	r24, r18
    1dc2:	93 0b       	sbc	r25, r19
    1dc4:	08 95       	ret
  }else{
	  twoscomp &= mask;
    1dc6:	84 23       	and	r24, r20
    1dc8:	95 23       	and	r25, r21
  }
  return twoscomp;
}
    1dca:	08 95       	ret

00001dcc <FUNCdec2bcd>:
// Convert Decimal to Binary Coded Decimal (BCD)
char FUNCdec2bcd(char num)
{
	return ((num/10 * 16) + (num % 10));
    1dcc:	9d ec       	ldi	r25, 0xCD	; 205
    1dce:	89 9f       	mul	r24, r25
    1dd0:	91 2d       	mov	r25, r1
    1dd2:	11 24       	eor	r1, r1
    1dd4:	96 95       	lsr	r25
    1dd6:	96 95       	lsr	r25
    1dd8:	96 95       	lsr	r25
    1dda:	39 2f       	mov	r19, r25
    1ddc:	33 0f       	add	r19, r19
    1dde:	23 2f       	mov	r18, r19
    1de0:	22 0f       	add	r18, r18
    1de2:	22 0f       	add	r18, r18
    1de4:	23 0f       	add	r18, r19
    1de6:	82 1b       	sub	r24, r18
}
    1de8:	20 e1       	ldi	r18, 0x10	; 16
    1dea:	92 9f       	mul	r25, r18
    1dec:	80 0d       	add	r24, r0
    1dee:	11 24       	eor	r1, r1
    1df0:	08 95       	ret

00001df2 <FUNCbcd2dec>:
// Convert Binary Coded Decimal (BCD) to Decimal
char FUNCbcd2dec(char num)
{
	return ((num/16 * 10) + (num % 16));
    1df2:	98 2f       	mov	r25, r24
    1df4:	92 95       	swap	r25
    1df6:	9f 70       	andi	r25, 0x0F	; 15
    1df8:	99 0f       	add	r25, r25
    1dfa:	29 2f       	mov	r18, r25
    1dfc:	22 0f       	add	r18, r18
    1dfe:	22 0f       	add	r18, r18
    1e00:	92 0f       	add	r25, r18
    1e02:	8f 70       	andi	r24, 0x0F	; 15
}
    1e04:	89 0f       	add	r24, r25
    1e06:	08 95       	ret

00001e08 <FUNCresizestr>:
char* FUNCresizestr(char *string, int size)
{
    1e08:	fc 01       	movw	r30, r24
	int i;
	FUNCstr[size]='\0';
    1e0a:	db 01       	movw	r26, r22
    1e0c:	a1 5b       	subi	r26, 0xB1	; 177
    1e0e:	bd 4f       	sbci	r27, 0xFD	; 253
    1e10:	1c 92       	st	X, r1
	for(i=0;i<size;i++){
    1e12:	16 16       	cp	r1, r22
    1e14:	17 06       	cpc	r1, r23
    1e16:	14 f5       	brge	.+68     	; 0x1e5c <FUNCresizestr+0x54>
		if(*(string+i)=='\0'){
    1e18:	90 81       	ld	r25, Z
    1e1a:	91 11       	cpse	r25, r1
    1e1c:	0c c0       	rjmp	.+24     	; 0x1e36 <FUNCresizestr+0x2e>
    1e1e:	17 c0       	rjmp	.+46     	; 0x1e4e <FUNCresizestr+0x46>
    1e20:	91 91       	ld	r25, Z+
    1e22:	91 11       	cpse	r25, r1
    1e24:	0d c0       	rjmp	.+26     	; 0x1e40 <FUNCresizestr+0x38>
    1e26:	15 c0       	rjmp	.+42     	; 0x1e52 <FUNCresizestr+0x4a>
			for(;i<size;i++){
				FUNCstr[i]=' ';
    1e28:	81 93       	st	Z+, r24
{
	int i;
	FUNCstr[size]='\0';
	for(i=0;i<size;i++){
		if(*(string+i)=='\0'){
			for(;i<size;i++){
    1e2a:	2f 5f       	subi	r18, 0xFF	; 255
    1e2c:	3f 4f       	sbci	r19, 0xFF	; 255
    1e2e:	26 17       	cp	r18, r22
    1e30:	37 07       	cpc	r19, r23
    1e32:	d4 f3       	brlt	.-12     	; 0x1e28 <FUNCresizestr+0x20>
    1e34:	13 c0       	rjmp	.+38     	; 0x1e5c <FUNCresizestr+0x54>
    1e36:	af e4       	ldi	r26, 0x4F	; 79
    1e38:	b2 e0       	ldi	r27, 0x02	; 2
    1e3a:	31 96       	adiw	r30, 0x01	; 1
char* FUNCresizestr(char *string, int size)
{
	int i;
	FUNCstr[size]='\0';
	for(i=0;i<size;i++){
		if(*(string+i)=='\0'){
    1e3c:	20 e0       	ldi	r18, 0x00	; 0
    1e3e:	30 e0       	ldi	r19, 0x00	; 0
			for(;i<size;i++){
				FUNCstr[i]=' ';
			}
			break;
		}
		FUNCstr[i]=*(string+i);
    1e40:	9d 93       	st	X+, r25
}
char* FUNCresizestr(char *string, int size)
{
	int i;
	FUNCstr[size]='\0';
	for(i=0;i<size;i++){
    1e42:	2f 5f       	subi	r18, 0xFF	; 255
    1e44:	3f 4f       	sbci	r19, 0xFF	; 255
    1e46:	62 17       	cp	r22, r18
    1e48:	73 07       	cpc	r23, r19
    1e4a:	51 f7       	brne	.-44     	; 0x1e20 <FUNCresizestr+0x18>
    1e4c:	07 c0       	rjmp	.+14     	; 0x1e5c <FUNCresizestr+0x54>
    1e4e:	20 e0       	ldi	r18, 0x00	; 0
    1e50:	30 e0       	ldi	r19, 0x00	; 0
    1e52:	f9 01       	movw	r30, r18
    1e54:	e1 5b       	subi	r30, 0xB1	; 177
    1e56:	fd 4f       	sbci	r31, 0xFD	; 253
		if(*(string+i)=='\0'){
			for(;i<size;i++){
				FUNCstr[i]=' ';
    1e58:	80 e2       	ldi	r24, 0x20	; 32
    1e5a:	e6 cf       	rjmp	.-52     	; 0x1e28 <FUNCresizestr+0x20>
			break;
		}
		FUNCstr[i]=*(string+i);
	}
	return FUNCstr;
}
    1e5c:	8f e4       	ldi	r24, 0x4F	; 79
    1e5e:	92 e0       	ldi	r25, 0x02	; 2
    1e60:	08 95       	ret

00001e62 <FUNCtrimmer>:
long FUNCtrimmer(long x, long in_min, long in_max, long out_min, long out_max)
/*
	same as arduino map function.
*/
{
    1e62:	4f 92       	push	r4
    1e64:	5f 92       	push	r5
    1e66:	6f 92       	push	r6
    1e68:	7f 92       	push	r7
    1e6a:	af 92       	push	r10
    1e6c:	bf 92       	push	r11
    1e6e:	cf 92       	push	r12
    1e70:	df 92       	push	r13
    1e72:	ef 92       	push	r14
    1e74:	ff 92       	push	r15
    1e76:	0f 93       	push	r16
    1e78:	1f 93       	push	r17
    1e7a:	cf 93       	push	r28
    1e7c:	df 93       	push	r29
    1e7e:	cd b7       	in	r28, 0x3d	; 61
    1e80:	de b7       	in	r29, 0x3e	; 62
    1e82:	29 01       	movw	r4, r18
    1e84:	3a 01       	movw	r6, r20
	return (x - in_min) * (out_max - out_min) / (in_max - in_min) + out_min;
    1e86:	9b 01       	movw	r18, r22
    1e88:	ac 01       	movw	r20, r24
    1e8a:	24 19       	sub	r18, r4
    1e8c:	35 09       	sbc	r19, r5
    1e8e:	46 09       	sbc	r20, r6
    1e90:	57 09       	sbc	r21, r7
    1e92:	89 89       	ldd	r24, Y+17	; 0x11
    1e94:	9a 89       	ldd	r25, Y+18	; 0x12
    1e96:	ab 89       	ldd	r26, Y+19	; 0x13
    1e98:	bc 89       	ldd	r27, Y+20	; 0x14
    1e9a:	bc 01       	movw	r22, r24
    1e9c:	cd 01       	movw	r24, r26
    1e9e:	6a 19       	sub	r22, r10
    1ea0:	7b 09       	sbc	r23, r11
    1ea2:	8c 09       	sbc	r24, r12
    1ea4:	9d 09       	sbc	r25, r13
    1ea6:	0e 94 e8 18 	call	0x31d0	; 0x31d0 <__mulsi3>
    1eaa:	a8 01       	movw	r20, r16
    1eac:	97 01       	movw	r18, r14
    1eae:	24 19       	sub	r18, r4
    1eb0:	35 09       	sbc	r19, r5
    1eb2:	46 09       	sbc	r20, r6
    1eb4:	57 09       	sbc	r21, r7
    1eb6:	0e 94 40 19 	call	0x3280	; 0x3280 <__divmodsi4>
    1eba:	ca 01       	movw	r24, r20
    1ebc:	b9 01       	movw	r22, r18
    1ebe:	6a 0d       	add	r22, r10
    1ec0:	7b 1d       	adc	r23, r11
    1ec2:	8c 1d       	adc	r24, r12
    1ec4:	9d 1d       	adc	r25, r13
}
    1ec6:	df 91       	pop	r29
    1ec8:	cf 91       	pop	r28
    1eca:	1f 91       	pop	r17
    1ecc:	0f 91       	pop	r16
    1ece:	ff 90       	pop	r15
    1ed0:	ef 90       	pop	r14
    1ed2:	df 90       	pop	r13
    1ed4:	cf 90       	pop	r12
    1ed6:	bf 90       	pop	r11
    1ed8:	af 90       	pop	r10
    1eda:	7f 90       	pop	r7
    1edc:	6f 90       	pop	r6
    1ede:	5f 90       	pop	r5
    1ee0:	4f 90       	pop	r4
    1ee2:	08 95       	ret

00001ee4 <Power>:
// power: raise base to n-th power; n >= 0
unsigned int Power(uint8_t base, uint8_t n)
{
    unsigned int i, p;
    p = 1;
    for (i = 1; i <= n; ++i)
    1ee4:	70 e0       	ldi	r23, 0x00	; 0
    1ee6:	61 15       	cp	r22, r1
    1ee8:	71 05       	cpc	r23, r1
    1eea:	99 f0       	breq	.+38     	; 0x1f12 <Power+0x2e>
    1eec:	41 e0       	ldi	r20, 0x01	; 1
    1eee:	50 e0       	ldi	r21, 0x00	; 0
    1ef0:	21 e0       	ldi	r18, 0x01	; 1
    1ef2:	30 e0       	ldi	r19, 0x00	; 0
        p = p * base;
    1ef4:	90 e0       	ldi	r25, 0x00	; 0
    1ef6:	fa 01       	movw	r30, r20
    1ef8:	e8 9f       	mul	r30, r24
    1efa:	a0 01       	movw	r20, r0
    1efc:	e9 9f       	mul	r30, r25
    1efe:	50 0d       	add	r21, r0
    1f00:	f8 9f       	mul	r31, r24
    1f02:	50 0d       	add	r21, r0
    1f04:	11 24       	eor	r1, r1
// power: raise base to n-th power; n >= 0
unsigned int Power(uint8_t base, uint8_t n)
{
    unsigned int i, p;
    p = 1;
    for (i = 1; i <= n; ++i)
    1f06:	2f 5f       	subi	r18, 0xFF	; 255
    1f08:	3f 4f       	sbci	r19, 0xFF	; 255
    1f0a:	62 17       	cp	r22, r18
    1f0c:	73 07       	cpc	r23, r19
    1f0e:	98 f7       	brcc	.-26     	; 0x1ef6 <Power+0x12>
    1f10:	02 c0       	rjmp	.+4      	; 0x1f16 <Power+0x32>
}
// power: raise base to n-th power; n >= 0
unsigned int Power(uint8_t base, uint8_t n)
{
    unsigned int i, p;
    p = 1;
    1f12:	41 e0       	ldi	r20, 0x01	; 1
    1f14:	50 e0       	ldi	r21, 0x00	; 0
    for (i = 1; i <= n; ++i)
        p = p * base;
    return p;
}
    1f16:	ca 01       	movw	r24, r20
    1f18:	08 95       	ret

00001f1a <StringLength>:
// Function to count the number of characters in a string
int StringLength (const char string[])
{
	int count = 0;
	while ( string[count] != '\0' )
    1f1a:	fc 01       	movw	r30, r24
    1f1c:	20 81       	ld	r18, Z
    1f1e:	22 23       	and	r18, r18
    1f20:	41 f0       	breq	.+16     	; 0x1f32 <StringLength+0x18>
    1f22:	31 96       	adiw	r30, 0x01	; 1
    1f24:	80 e0       	ldi	r24, 0x00	; 0
    1f26:	90 e0       	ldi	r25, 0x00	; 0
		++count;
    1f28:	01 96       	adiw	r24, 0x01	; 1
}
// Function to count the number of characters in a string
int StringLength (const char string[])
{
	int count = 0;
	while ( string[count] != '\0' )
    1f2a:	21 91       	ld	r18, Z+
    1f2c:	21 11       	cpse	r18, r1
    1f2e:	fc cf       	rjmp	.-8      	; 0x1f28 <StringLength+0xe>
    1f30:	08 95       	ret
    return p;
}
// Function to count the number of characters in a string
int StringLength (const char string[])
{
	int count = 0;
    1f32:	80 e0       	ldi	r24, 0x00	; 0
    1f34:	90 e0       	ldi	r25, 0x00	; 0
	while ( string[count] != '\0' )
		++count;
	return count;
}
    1f36:	08 95       	ret

00001f38 <FUNCtrim>:
	s[i] = '\0';
	Reverse(s);
}
// trim: remove trailing blanks, tabs, newlines
int FUNCtrim(char s[])
{
    1f38:	cf 93       	push	r28
    1f3a:	df 93       	push	r29
    1f3c:	ec 01       	movw	r28, r24
	int n;
	for (n = StringLength(s)-1; n >= 0; n--)
    1f3e:	ed df       	rcall	.-38     	; 0x1f1a <StringLength>
    1f40:	9c 01       	movw	r18, r24
    1f42:	21 50       	subi	r18, 0x01	; 1
    1f44:	31 09       	sbc	r19, r1
    1f46:	62 f0       	brmi	.+24     	; 0x1f60 <FUNCtrim+0x28>
    1f48:	fe 01       	movw	r30, r28
    1f4a:	e8 0f       	add	r30, r24
    1f4c:	f9 1f       	adc	r31, r25
		if (s[n] != ' ' && s[n] != '\t' && s[n] != '\n')
    1f4e:	92 91       	ld	r25, -Z
    1f50:	90 32       	cpi	r25, 0x20	; 32
    1f52:	19 f0       	breq	.+6      	; 0x1f5a <FUNCtrim+0x22>
    1f54:	99 50       	subi	r25, 0x09	; 9
    1f56:	92 30       	cpi	r25, 0x02	; 2
    1f58:	18 f4       	brcc	.+6      	; 0x1f60 <FUNCtrim+0x28>
}
// trim: remove trailing blanks, tabs, newlines
int FUNCtrim(char s[])
{
	int n;
	for (n = StringLength(s)-1; n >= 0; n--)
    1f5a:	21 50       	subi	r18, 0x01	; 1
    1f5c:	31 09       	sbc	r19, r1
    1f5e:	b8 f7       	brcc	.-18     	; 0x1f4e <FUNCtrim+0x16>
		if (s[n] != ' ' && s[n] != '\t' && s[n] != '\n')
			break;
	s[n+1] = '\0';
    1f60:	c2 0f       	add	r28, r18
    1f62:	d3 1f       	adc	r29, r19
    1f64:	19 82       	std	Y+1, r1	; 0x01
	return n;
}
    1f66:	c9 01       	movw	r24, r18
    1f68:	df 91       	pop	r29
    1f6a:	cf 91       	pop	r28
    1f6c:	08 95       	ret

00001f6e <Reverse>:
		++count;
	return count;
}
// reverse: reverse string s in place
void Reverse(char s[])
{
    1f6e:	cf 93       	push	r28
    1f70:	df 93       	push	r29
    1f72:	ec 01       	movw	r28, r24
	int c, i, j;
	for (i = 0, j = StringLength(s)-1; i < j; i++, j--){
    1f74:	d2 df       	rcall	.-92     	; 0x1f1a <StringLength>
    1f76:	9c 01       	movw	r18, r24
    1f78:	21 50       	subi	r18, 0x01	; 1
    1f7a:	31 09       	sbc	r19, r1
    1f7c:	12 16       	cp	r1, r18
    1f7e:	13 06       	cpc	r1, r19
    1f80:	84 f4       	brge	.+32     	; 0x1fa2 <Reverse+0x34>
    1f82:	de 01       	movw	r26, r28
    1f84:	a8 0f       	add	r26, r24
    1f86:	b9 1f       	adc	r27, r25
    1f88:	fe 01       	movw	r30, r28
    1f8a:	80 e0       	ldi	r24, 0x00	; 0
    1f8c:	90 e0       	ldi	r25, 0x00	; 0
		c = s[i];
    1f8e:	40 81       	ld	r20, Z
		s[i] = s[j];
    1f90:	5e 91       	ld	r21, -X
    1f92:	51 93       	st	Z+, r21
		s[j] = c;
    1f94:	4c 93       	st	X, r20
}
// reverse: reverse string s in place
void Reverse(char s[])
{
	int c, i, j;
	for (i = 0, j = StringLength(s)-1; i < j; i++, j--){
    1f96:	01 96       	adiw	r24, 0x01	; 1
    1f98:	21 50       	subi	r18, 0x01	; 1
    1f9a:	31 09       	sbc	r19, r1
    1f9c:	82 17       	cp	r24, r18
    1f9e:	93 07       	cpc	r25, r19
    1fa0:	b4 f3       	brlt	.-20     	; 0x1f8e <Reverse+0x20>
		c = s[i];
		s[i] = s[j];
		s[j] = c;
	}
}
    1fa2:	df 91       	pop	r29
    1fa4:	cf 91       	pop	r28
    1fa6:	08 95       	ret

00001fa8 <FUNCi32toa>:
				v[j+gap] = temp;
			}
}
// i32toa: convert n to characters in s
void FUNCi32toa(int32_t n, char s[])
{
    1fa8:	6f 92       	push	r6
    1faa:	7f 92       	push	r7
    1fac:	8f 92       	push	r8
    1fae:	9f 92       	push	r9
    1fb0:	af 92       	push	r10
    1fb2:	bf 92       	push	r11
    1fb4:	cf 92       	push	r12
    1fb6:	df 92       	push	r13
    1fb8:	ef 92       	push	r14
    1fba:	ff 92       	push	r15
    1fbc:	0f 93       	push	r16
    1fbe:	1f 93       	push	r17
    1fc0:	cf 93       	push	r28
    1fc2:	df 93       	push	r29
    1fc4:	6b 01       	movw	r12, r22
    1fc6:	7c 01       	movw	r14, r24
    1fc8:	ea 01       	movw	r28, r20
    1fca:	dc 01       	movw	r26, r24
    1fcc:	cb 01       	movw	r24, r22
    1fce:	ff 20       	and	r15, r15
    1fd0:	3c f4       	brge	.+14     	; 0x1fe0 <FUNCi32toa+0x38>
    1fd2:	88 27       	eor	r24, r24
    1fd4:	99 27       	eor	r25, r25
    1fd6:	dc 01       	movw	r26, r24
    1fd8:	8c 19       	sub	r24, r12
    1fda:	9d 09       	sbc	r25, r13
    1fdc:	ae 09       	sbc	r26, r14
    1fde:	bf 09       	sbc	r27, r15
    1fe0:	bc 01       	movw	r22, r24
    1fe2:	cd 01       	movw	r24, r26
    1fe4:	71 2c       	mov	r7, r1
	int32_t sign;
	if ((sign = n) < 0) // record sign
	n = -n; // make n positive
	i = 0;
	do { // generate digits in reverse order
		s[i++] = n % 10 + '0'; // get next digit
    1fe6:	0f 2e       	mov	r0, r31
    1fe8:	fa e0       	ldi	r31, 0x0A	; 10
    1fea:	8f 2e       	mov	r8, r31
    1fec:	91 2c       	mov	r9, r1
    1fee:	a1 2c       	mov	r10, r1
    1ff0:	b1 2c       	mov	r11, r1
    1ff2:	f0 2d       	mov	r31, r0
    1ff4:	01 c0       	rjmp	.+2      	; 0x1ff8 <FUNCi32toa+0x50>
    1ff6:	76 2c       	mov	r7, r6
    1ff8:	66 24       	eor	r6, r6
    1ffa:	63 94       	inc	r6
    1ffc:	67 0c       	add	r6, r7
    1ffe:	8e 01       	movw	r16, r28
    2000:	07 0d       	add	r16, r7
    2002:	11 1d       	adc	r17, r1
    2004:	a5 01       	movw	r20, r10
    2006:	94 01       	movw	r18, r8
    2008:	0e 94 40 19 	call	0x3280	; 0x3280 <__divmodsi4>
    200c:	60 5d       	subi	r22, 0xD0	; 208
    200e:	f8 01       	movw	r30, r16
    2010:	60 83       	st	Z, r22
	}while ((n /= 10) > 0); // delete it
    2012:	62 2f       	mov	r22, r18
    2014:	73 2f       	mov	r23, r19
    2016:	84 2f       	mov	r24, r20
    2018:	95 2f       	mov	r25, r21
    201a:	16 16       	cp	r1, r22
    201c:	17 06       	cpc	r1, r23
    201e:	18 06       	cpc	r1, r24
    2020:	19 06       	cpc	r1, r25
    2022:	4c f3       	brlt	.-46     	; 0x1ff6 <FUNCi32toa+0x4e>
	if (sign < 0)
    2024:	ff 20       	and	r15, r15
    2026:	4c f4       	brge	.+18     	; 0x203a <FUNCi32toa+0x92>
	s[i++] = '-';
    2028:	fe 01       	movw	r30, r28
    202a:	e6 0d       	add	r30, r6
    202c:	f1 1d       	adc	r31, r1
    202e:	8d e2       	ldi	r24, 0x2D	; 45
    2030:	80 83       	st	Z, r24
    2032:	68 94       	set
    2034:	66 24       	eor	r6, r6
    2036:	61 f8       	bld	r6, 1
    2038:	67 0c       	add	r6, r7
	s[i] = '\0';
    203a:	fe 01       	movw	r30, r28
    203c:	e6 0d       	add	r30, r6
    203e:	f1 1d       	adc	r31, r1
    2040:	10 82       	st	Z, r1
	Reverse(s);
    2042:	ce 01       	movw	r24, r28
    2044:	94 df       	rcall	.-216    	; 0x1f6e <Reverse>
}
    2046:	df 91       	pop	r29
    2048:	cf 91       	pop	r28
    204a:	1f 91       	pop	r17
    204c:	0f 91       	pop	r16
    204e:	ff 90       	pop	r15
    2050:	ef 90       	pop	r14
    2052:	df 90       	pop	r13
    2054:	cf 90       	pop	r12
    2056:	bf 90       	pop	r11
    2058:	af 90       	pop	r10
    205a:	9f 90       	pop	r9
    205c:	8f 90       	pop	r8
    205e:	7f 90       	pop	r7
    2060:	6f 90       	pop	r6
    2062:	08 95       	ret

00002064 <FUNCi16toa>:
// i16toa: convert n to characters in s
void FUNCi16toa(int16_t n, char s[])
{
    2064:	ef 92       	push	r14
    2066:	ff 92       	push	r15
    2068:	0f 93       	push	r16
    206a:	1f 93       	push	r17
    206c:	cf 93       	push	r28
    206e:	df 93       	push	r29
    2070:	8c 01       	movw	r16, r24
    2072:	eb 01       	movw	r28, r22
    2074:	99 23       	and	r25, r25
    2076:	24 f4       	brge	.+8      	; 0x2080 <FUNCi16toa+0x1c>
    2078:	88 27       	eor	r24, r24
    207a:	99 27       	eor	r25, r25
    207c:	80 1b       	sub	r24, r16
    207e:	91 0b       	sbc	r25, r17
    2080:	20 e0       	ldi	r18, 0x00	; 0
	int16_t sign;
	if ((sign = n) < 0) // record sign
		n = -n; // make n positive
	i = 0;
	do { // generate digits in reverse order
		s[i++] = n % 10 + '0'; // get next digit
    2082:	0f 2e       	mov	r0, r31
    2084:	fa e0       	ldi	r31, 0x0A	; 10
    2086:	ef 2e       	mov	r14, r31
    2088:	f1 2c       	mov	r15, r1
    208a:	f0 2d       	mov	r31, r0
    208c:	01 c0       	rjmp	.+2      	; 0x2090 <FUNCi16toa+0x2c>
    208e:	23 2f       	mov	r18, r19
    2090:	31 e0       	ldi	r19, 0x01	; 1
    2092:	32 0f       	add	r19, r18
    2094:	fe 01       	movw	r30, r28
    2096:	e2 0f       	add	r30, r18
    2098:	f1 1d       	adc	r31, r1
    209a:	b7 01       	movw	r22, r14
    209c:	0e 94 0b 19 	call	0x3216	; 0x3216 <__divmodhi4>
    20a0:	80 5d       	subi	r24, 0xD0	; 208
    20a2:	80 83       	st	Z, r24
	}while ((n /= 10) > 0); // delete it
    20a4:	86 2f       	mov	r24, r22
    20a6:	97 2f       	mov	r25, r23
    20a8:	18 16       	cp	r1, r24
    20aa:	19 06       	cpc	r1, r25
    20ac:	84 f3       	brlt	.-32     	; 0x208e <FUNCi16toa+0x2a>
	if (sign < 0)
    20ae:	11 23       	and	r17, r17
    20b0:	3c f4       	brge	.+14     	; 0x20c0 <FUNCi16toa+0x5c>
		s[i++] = '-';
    20b2:	fe 01       	movw	r30, r28
    20b4:	e3 0f       	add	r30, r19
    20b6:	f1 1d       	adc	r31, r1
    20b8:	8d e2       	ldi	r24, 0x2D	; 45
    20ba:	80 83       	st	Z, r24
    20bc:	32 e0       	ldi	r19, 0x02	; 2
    20be:	32 0f       	add	r19, r18
	s[i] = '\0';
    20c0:	fe 01       	movw	r30, r28
    20c2:	e3 0f       	add	r30, r19
    20c4:	f1 1d       	adc	r31, r1
    20c6:	10 82       	st	Z, r1
	Reverse(s);
    20c8:	ce 01       	movw	r24, r28
    20ca:	51 df       	rcall	.-350    	; 0x1f6e <Reverse>
}
    20cc:	df 91       	pop	r29
    20ce:	cf 91       	pop	r28
    20d0:	1f 91       	pop	r17
    20d2:	0f 91       	pop	r16
    20d4:	ff 90       	pop	r15
    20d6:	ef 90       	pop	r14
    20d8:	08 95       	ret

000020da <FUNCui16toa>:
// ui16toa: convert n to characters in s
void FUNCui16toa(uint16_t n, char s[])
{
    20da:	1f 93       	push	r17
    20dc:	cf 93       	push	r28
    20de:	df 93       	push	r29
    20e0:	ac 01       	movw	r20, r24
    20e2:	fb 01       	movw	r30, r22
	uint8_t i;
	i = 0;
    20e4:	80 e0       	ldi	r24, 0x00	; 0
	do { // generate digits in reverse order
		s[i++] = n % 10 + '0'; // get next digit
    20e6:	11 e0       	ldi	r17, 0x01	; 1
    20e8:	18 0f       	add	r17, r24
    20ea:	ef 01       	movw	r28, r30
    20ec:	c8 0f       	add	r28, r24
    20ee:	d1 1d       	adc	r29, r1
    20f0:	9a 01       	movw	r18, r20
    20f2:	ad ec       	ldi	r26, 0xCD	; 205
    20f4:	bc ec       	ldi	r27, 0xCC	; 204
    20f6:	0e 94 65 19 	call	0x32ca	; 0x32ca <__umulhisi3>
    20fa:	96 95       	lsr	r25
    20fc:	87 95       	ror	r24
    20fe:	96 95       	lsr	r25
    2100:	87 95       	ror	r24
    2102:	96 95       	lsr	r25
    2104:	87 95       	ror	r24
    2106:	9c 01       	movw	r18, r24
    2108:	22 0f       	add	r18, r18
    210a:	33 1f       	adc	r19, r19
    210c:	88 0f       	add	r24, r24
    210e:	99 1f       	adc	r25, r25
    2110:	88 0f       	add	r24, r24
    2112:	99 1f       	adc	r25, r25
    2114:	88 0f       	add	r24, r24
    2116:	99 1f       	adc	r25, r25
    2118:	82 0f       	add	r24, r18
    211a:	93 1f       	adc	r25, r19
    211c:	9a 01       	movw	r18, r20
    211e:	28 1b       	sub	r18, r24
    2120:	39 0b       	sbc	r19, r25
    2122:	c9 01       	movw	r24, r18
    2124:	80 5d       	subi	r24, 0xD0	; 208
    2126:	88 83       	st	Y, r24
	}while ((n /= 10) > 0); // delete it
    2128:	9a 01       	movw	r18, r20
    212a:	0e 94 65 19 	call	0x32ca	; 0x32ca <__umulhisi3>
    212e:	ac 01       	movw	r20, r24
    2130:	56 95       	lsr	r21
    2132:	47 95       	ror	r20
    2134:	56 95       	lsr	r21
    2136:	47 95       	ror	r20
    2138:	56 95       	lsr	r21
    213a:	47 95       	ror	r20
void FUNCui16toa(uint16_t n, char s[])
{
	uint8_t i;
	i = 0;
	do { // generate digits in reverse order
		s[i++] = n % 10 + '0'; // get next digit
    213c:	81 2f       	mov	r24, r17
	}while ((n /= 10) > 0); // delete it
    213e:	41 15       	cp	r20, r1
    2140:	51 05       	cpc	r21, r1
    2142:	89 f6       	brne	.-94     	; 0x20e6 <FUNCui16toa+0xc>
	s[i] = '\0';
    2144:	df 01       	movw	r26, r30
    2146:	a1 0f       	add	r26, r17
    2148:	b1 1d       	adc	r27, r1
    214a:	1c 92       	st	X, r1
	Reverse(s);
    214c:	cf 01       	movw	r24, r30
    214e:	0f df       	rcall	.-482    	; 0x1f6e <Reverse>
}
    2150:	df 91       	pop	r29
    2152:	cf 91       	pop	r28
    2154:	1f 91       	pop	r17
    2156:	08 95       	ret

00002158 <FUNCbcd2bin>:
		s[j] = c;
	}
}
unsigned char FUNCbcd2bin(unsigned char val)
{
	return (val & 0x0f) + (val >> 4) * 10;
    2158:	98 2f       	mov	r25, r24
    215a:	92 95       	swap	r25
    215c:	9f 70       	andi	r25, 0x0F	; 15
    215e:	99 0f       	add	r25, r25
    2160:	29 2f       	mov	r18, r25
    2162:	22 0f       	add	r18, r18
    2164:	22 0f       	add	r18, r18
    2166:	92 0f       	add	r25, r18
    2168:	8f 70       	andi	r24, 0x0F	; 15
}
    216a:	89 0f       	add	r24, r25
    216c:	08 95       	ret

0000216e <FUNCbin2bcd>:
unsigned char FUNCbin2bcd(unsigned val)
{
    216e:	ac 01       	movw	r20, r24
	return ((val / 10) << 4) + val % 10;
    2170:	9c 01       	movw	r18, r24
    2172:	ad ec       	ldi	r26, 0xCD	; 205
    2174:	bc ec       	ldi	r27, 0xCC	; 204
    2176:	0e 94 65 19 	call	0x32ca	; 0x32ca <__umulhisi3>
    217a:	96 95       	lsr	r25
    217c:	87 95       	ror	r24
    217e:	96 95       	lsr	r25
    2180:	87 95       	ror	r24
    2182:	96 95       	lsr	r25
    2184:	87 95       	ror	r24
    2186:	bc 01       	movw	r22, r24
    2188:	66 0f       	add	r22, r22
    218a:	77 1f       	adc	r23, r23
    218c:	9c 01       	movw	r18, r24
    218e:	22 0f       	add	r18, r18
    2190:	33 1f       	adc	r19, r19
    2192:	22 0f       	add	r18, r18
    2194:	33 1f       	adc	r19, r19
    2196:	22 0f       	add	r18, r18
    2198:	33 1f       	adc	r19, r19
    219a:	26 0f       	add	r18, r22
    219c:	37 1f       	adc	r19, r23
    219e:	42 1b       	sub	r20, r18
    21a0:	53 0b       	sbc	r21, r19
}
    21a2:	34 2f       	mov	r19, r20
    21a4:	20 e1       	ldi	r18, 0x10	; 16
    21a6:	82 9f       	mul	r24, r18
    21a8:	30 0d       	add	r19, r0
    21aa:	11 24       	eor	r1, r1
    21ac:	83 2f       	mov	r24, r19
    21ae:	08 95       	ret

000021b0 <FUNCgcd1>:
long FUNCgcd1(long a, long b)
{
    21b0:	cf 92       	push	r12
    21b2:	df 92       	push	r13
    21b4:	ef 92       	push	r14
    21b6:	ff 92       	push	r15
    21b8:	cf 93       	push	r28
    21ba:	df 93       	push	r29
    21bc:	cd b7       	in	r28, 0x3d	; 61
    21be:	de b7       	in	r29, 0x3e	; 62
    21c0:	28 97       	sbiw	r28, 0x08	; 8
    21c2:	0f b6       	in	r0, 0x3f	; 63
    21c4:	f8 94       	cli
    21c6:	de bf       	out	0x3e, r29	; 62
    21c8:	0f be       	out	0x3f, r0	; 63
    21ca:	cd bf       	out	0x3d, r28	; 61
    21cc:	6b 01       	movw	r12, r22
    21ce:	7c 01       	movw	r14, r24
    21d0:	69 83       	std	Y+1, r22	; 0x01
    21d2:	7a 83       	std	Y+2, r23	; 0x02
    21d4:	8b 83       	std	Y+3, r24	; 0x03
    21d6:	9c 83       	std	Y+4, r25	; 0x04
    21d8:	2d 83       	std	Y+5, r18	; 0x05
    21da:	3e 83       	std	Y+6, r19	; 0x06
    21dc:	4f 83       	std	Y+7, r20	; 0x07
    21de:	58 87       	std	Y+8, r21	; 0x08
	long r;
	if (a < b)
    21e0:	c2 16       	cp	r12, r18
    21e2:	d3 06       	cpc	r13, r19
    21e4:	e4 06       	cpc	r14, r20
    21e6:	f5 06       	cpc	r15, r21
    21e8:	34 f4       	brge	.+12     	; 0x21f6 <FUNCgcd1+0x46>
		FUNCswap(&a, &b);
    21ea:	be 01       	movw	r22, r28
    21ec:	6b 5f       	subi	r22, 0xFB	; 251
    21ee:	7f 4f       	sbci	r23, 0xFF	; 255
    21f0:	ce 01       	movw	r24, r28
    21f2:	01 96       	adiw	r24, 0x01	; 1
    21f4:	7f dc       	rcall	.-1794   	; 0x1af4 <FUNCswap>
	if (!b){
    21f6:	8d 81       	ldd	r24, Y+5	; 0x05
    21f8:	9e 81       	ldd	r25, Y+6	; 0x06
    21fa:	af 81       	ldd	r26, Y+7	; 0x07
    21fc:	b8 85       	ldd	r27, Y+8	; 0x08
    21fe:	89 2b       	or	r24, r25
    2200:	8a 2b       	or	r24, r26
    2202:	8b 2b       	or	r24, r27
    2204:	71 f4       	brne	.+28     	; 0x2222 <FUNCgcd1+0x72>
		while ((r = a % b) != 0) {
    2206:	69 81       	ldd	r22, Y+1	; 0x01
    2208:	7a 81       	ldd	r23, Y+2	; 0x02
    220a:	8b 81       	ldd	r24, Y+3	; 0x03
    220c:	9c 81       	ldd	r25, Y+4	; 0x04
    220e:	20 e0       	ldi	r18, 0x00	; 0
    2210:	30 e0       	ldi	r19, 0x00	; 0
    2212:	a9 01       	movw	r20, r18
    2214:	0e 94 40 19 	call	0x3280	; 0x3280 <__divmodsi4>
    2218:	61 15       	cp	r22, r1
    221a:	71 05       	cpc	r23, r1
    221c:	81 05       	cpc	r24, r1
    221e:	91 05       	cpc	r25, r1
    2220:	29 f4       	brne	.+10     	; 0x222c <FUNCgcd1+0x7c>
			a = b;
			b = r;
		}
	}	
	return b;
    2222:	6d 81       	ldd	r22, Y+5	; 0x05
    2224:	7e 81       	ldd	r23, Y+6	; 0x06
    2226:	8f 81       	ldd	r24, Y+7	; 0x07
    2228:	98 85       	ldd	r25, Y+8	; 0x08
    222a:	05 c0       	rjmp	.+10     	; 0x2236 <FUNCgcd1+0x86>
	if (a < b)
		FUNCswap(&a, &b);
	if (!b){
		while ((r = a % b) != 0) {
			a = b;
			b = r;
    222c:	6d 83       	std	Y+5, r22	; 0x05
    222e:	7e 83       	std	Y+6, r23	; 0x06
    2230:	8f 83       	std	Y+7, r24	; 0x07
    2232:	98 87       	std	Y+8, r25	; 0x08
    2234:	f6 cf       	rjmp	.-20     	; 0x2222 <FUNCgcd1+0x72>
		}
	}	
	return b;
}
    2236:	28 96       	adiw	r28, 0x08	; 8
    2238:	0f b6       	in	r0, 0x3f	; 63
    223a:	f8 94       	cli
    223c:	de bf       	out	0x3e, r29	; 62
    223e:	0f be       	out	0x3f, r0	; 63
    2240:	cd bf       	out	0x3d, r28	; 61
    2242:	df 91       	pop	r29
    2244:	cf 91       	pop	r28
    2246:	ff 90       	pop	r15
    2248:	ef 90       	pop	r14
    224a:	df 90       	pop	r13
    224c:	cf 90       	pop	r12
    224e:	08 95       	ret

00002250 <FUNCpincheck>:
	uint8_t lh;
	if(port & (1<<pin))
		lh=1;
	else
		lh=0;
	return lh;
    2250:	90 e0       	ldi	r25, 0x00	; 0
    2252:	02 c0       	rjmp	.+4      	; 0x2258 <FUNCpincheck+0x8>
    2254:	95 95       	asr	r25
    2256:	87 95       	ror	r24
    2258:	6a 95       	dec	r22
    225a:	e2 f7       	brpl	.-8      	; 0x2254 <FUNCpincheck+0x4>
}
    225c:	81 70       	andi	r24, 0x01	; 1
    225e:	08 95       	ret

00002260 <FUNCprint_binary>:
char* FUNCprint_binary(uint8_t number)
{
    2260:	ef e4       	ldi	r30, 0x4F	; 79
    2262:	f2 e0       	ldi	r31, 0x02	; 2
	uint8_t i,c;
    for(i=128,c=0;i;i>>=1,c++){
    2264:	90 e0       	ldi	r25, 0x00	; 0
    2266:	20 e8       	ldi	r18, 0x80	; 128
	(number & i) ? (FUNCstr[c]='1') : (FUNCstr[c]='0');
    2268:	50 e3       	ldi	r21, 0x30	; 48
    226a:	41 e3       	ldi	r20, 0x31	; 49
    226c:	38 2f       	mov	r19, r24
    226e:	32 23       	and	r19, r18
    2270:	11 f0       	breq	.+4      	; 0x2276 <FUNCprint_binary+0x16>
    2272:	40 83       	st	Z, r20
    2274:	01 c0       	rjmp	.+2      	; 0x2278 <FUNCprint_binary+0x18>
    2276:	50 83       	st	Z, r21
	return lh;
}
char* FUNCprint_binary(uint8_t number)
{
	uint8_t i,c;
    for(i=128,c=0;i;i>>=1,c++){
    2278:	26 95       	lsr	r18
    227a:	9f 5f       	subi	r25, 0xFF	; 255
    227c:	31 96       	adiw	r30, 0x01	; 1
    227e:	98 30       	cpi	r25, 0x08	; 8
    2280:	a9 f7       	brne	.-22     	; 0x226c <FUNCprint_binary+0xc>
	(number & i) ? (FUNCstr[c]='1') : (FUNCstr[c]='0');
	}
	FUNCstr[c]='\0';
    2282:	10 92 57 02 	sts	0x0257, r1	; 0x800257 <FUNCstr+0x8>
	return FUNCstr;
}
    2286:	8f e4       	ldi	r24, 0x4F	; 79
    2288:	92 e0       	ldi	r25, 0x02	; 2
    228a:	08 95       	ret

0000228c <FUNCmayia>:
// power: raise base to n-th power; n >= 0
unsigned int Power(uint8_t base, uint8_t n)
{
    unsigned int i, p;
    p = 1;
    for (i = 1; i <= n; ++i)
    228c:	a4 2f       	mov	r26, r20
    228e:	b0 e0       	ldi	r27, 0x00	; 0
    2290:	10 97       	sbiw	r26, 0x00	; 0
    2292:	61 f0       	breq	.+24     	; 0x22ac <FUNCmayia+0x20>
    2294:	21 e0       	ldi	r18, 0x01	; 1
    2296:	30 e0       	ldi	r19, 0x00	; 0
    2298:	e1 e0       	ldi	r30, 0x01	; 1
    229a:	f0 e0       	ldi	r31, 0x00	; 0
        p = p * base;
    229c:	ee 0f       	add	r30, r30
    229e:	ff 1f       	adc	r31, r31
// power: raise base to n-th power; n >= 0
unsigned int Power(uint8_t base, uint8_t n)
{
    unsigned int i, p;
    p = 1;
    for (i = 1; i <= n; ++i)
    22a0:	2f 5f       	subi	r18, 0xFF	; 255
    22a2:	3f 4f       	sbci	r19, 0xFF	; 255
    22a4:	a2 17       	cp	r26, r18
    22a6:	b3 07       	cpc	r27, r19
    22a8:	c8 f7       	brcc	.-14     	; 0x229c <FUNCmayia+0x10>
    22aa:	02 c0       	rjmp	.+4      	; 0x22b0 <FUNCmayia+0x24>
}
// power: raise base to n-th power; n >= 0
unsigned int Power(uint8_t base, uint8_t n)
{
    unsigned int i, p;
    p = 1;
    22ac:	e1 e0       	ldi	r30, 0x01	; 1
    22ae:	f0 e0       	ldi	r31, 0x00	; 0
unsigned int FUNCmayia(unsigned int xi, unsigned int xf, uint8_t nbits)
{//magic formula
	unsigned int mask;
	unsigned int diff;
	unsigned int trans;
	mask=Power(2,nbits)-1;
    22b0:	31 97       	sbiw	r30, 0x01	; 1
	xi&=mask;
	xf&=mask;
    22b2:	6e 23       	and	r22, r30
    22b4:	7f 23       	and	r23, r31
	diff=xf^xi;
    22b6:	8e 23       	and	r24, r30
    22b8:	9f 23       	and	r25, r31
    22ba:	86 27       	eor	r24, r22
    22bc:	97 27       	eor	r25, r23
	trans=diff&xf;
	return (trans<<nbits)|diff;
    22be:	68 23       	and	r22, r24
    22c0:	79 23       	and	r23, r25
    22c2:	02 c0       	rjmp	.+4      	; 0x22c8 <FUNCmayia+0x3c>
    22c4:	66 0f       	add	r22, r22
    22c6:	77 1f       	adc	r23, r23
    22c8:	4a 95       	dec	r20
    22ca:	e2 f7       	brpl	.-8      	; 0x22c4 <FUNCmayia+0x38>
}
    22cc:	86 2b       	or	r24, r22
    22ce:	97 2b       	or	r25, r23
    22d0:	08 95       	ret

000022d2 <FUNCenable>:
// uint8_t TRANupdate(struct TRAN *tr, uint8_t idata);
/*
** procedure and function
*/
FUNC FUNCenable( void )
{
    22d2:	fc 01       	movw	r30, r24
	uint8_t tSREG;
	tSREG=SREG;
    22d4:	9f b7       	in	r25, 0x3f	; 63
	SREG&=~(1<<GLOBAL_INTERRUPT_ENABLE);
    22d6:	8f b7       	in	r24, 0x3f	; 63
    22d8:	8f 77       	andi	r24, 0x7F	; 127
    22da:	8f bf       	out	0x3f, r24	; 63
	func.putstr=FUNCputstr;
	func.getnum=FUNCgetnum;
	func.getnumv2=FUNCgetnumv2;
	func.readint=FUNCreadint;
	*/
	SREG=tSREG;
    22dc:	9f bf       	out	0x3f, r25	; 63
	/******/
	return func;
    22de:	82 e7       	ldi	r24, 0x72	; 114
    22e0:	9f e0       	ldi	r25, 0x0F	; 15
    22e2:	91 83       	std	Z+1, r25	; 0x01
    22e4:	80 83       	st	Z, r24
    22e6:	8d e8       	ldi	r24, 0x8D	; 141
    22e8:	9f e0       	ldi	r25, 0x0F	; 15
    22ea:	93 83       	std	Z+3, r25	; 0x03
    22ec:	82 83       	std	Z+2, r24	; 0x02
    22ee:	87 eb       	ldi	r24, 0xB7	; 183
    22f0:	9f e0       	ldi	r25, 0x0F	; 15
    22f2:	95 83       	std	Z+5, r25	; 0x05
    22f4:	84 83       	std	Z+4, r24	; 0x04
    22f6:	86 e4       	ldi	r24, 0x46	; 70
    22f8:	91 e1       	ldi	r25, 0x11	; 17
    22fa:	97 83       	std	Z+7, r25	; 0x07
    22fc:	86 83       	std	Z+6, r24	; 0x06
    22fe:	8f e5       	ldi	r24, 0x5F	; 95
    2300:	9d e0       	ldi	r25, 0x0D	; 13
    2302:	91 87       	std	Z+9, r25	; 0x09
    2304:	80 87       	std	Z+8, r24	; 0x08
    2306:	8d e6       	ldi	r24, 0x6D	; 109
    2308:	9d e0       	ldi	r25, 0x0D	; 13
    230a:	93 87       	std	Z+11, r25	; 0x0b
    230c:	82 87       	std	Z+10, r24	; 0x0a
    230e:	8f e6       	ldi	r24, 0x6F	; 111
    2310:	9d e0       	ldi	r25, 0x0D	; 13
    2312:	95 87       	std	Z+13, r25	; 0x0d
    2314:	84 87       	std	Z+12, r24	; 0x0c
    2316:	82 e7       	ldi	r24, 0x72	; 114
    2318:	9d e0       	ldi	r25, 0x0D	; 13
    231a:	97 87       	std	Z+15, r25	; 0x0f
    231c:	86 87       	std	Z+14, r24	; 0x0e
    231e:	85 e7       	ldi	r24, 0x75	; 117
    2320:	9d e0       	ldi	r25, 0x0D	; 13
    2322:	91 8b       	std	Z+17, r25	; 0x11
    2324:	80 8b       	std	Z+16, r24	; 0x10
    2326:	88 e7       	ldi	r24, 0x78	; 120
    2328:	9d e0       	ldi	r25, 0x0D	; 13
    232a:	93 8b       	std	Z+19, r25	; 0x13
    232c:	82 8b       	std	Z+18, r24	; 0x12
    232e:	89 e6       	ldi	r24, 0x69	; 105
    2330:	9d e0       	ldi	r25, 0x0D	; 13
    2332:	95 8b       	std	Z+21, r25	; 0x15
    2334:	84 8b       	std	Z+20, r24	; 0x14
    2336:	8b e6       	ldi	r24, 0x6B	; 107
    2338:	9d e0       	ldi	r25, 0x0D	; 13
    233a:	97 8b       	std	Z+23, r25	; 0x17
    233c:	86 8b       	std	Z+22, r24	; 0x16
    233e:	8a e7       	ldi	r24, 0x7A	; 122
    2340:	9d e0       	ldi	r25, 0x0D	; 13
    2342:	91 8f       	std	Z+25, r25	; 0x19
    2344:	80 8f       	std	Z+24, r24	; 0x18
    2346:	8b e9       	ldi	r24, 0x9B	; 155
    2348:	9d e0       	ldi	r25, 0x0D	; 13
    234a:	93 8f       	std	Z+27, r25	; 0x1b
    234c:	82 8f       	std	Z+26, r24	; 0x1a
    234e:	89 ea       	ldi	r24, 0xA9	; 169
    2350:	9d e0       	ldi	r25, 0x0D	; 13
    2352:	95 8f       	std	Z+29, r25	; 0x1d
    2354:	84 8f       	std	Z+28, r24	; 0x1c
    2356:	8b ec       	ldi	r24, 0xCB	; 203
    2358:	9d e0       	ldi	r25, 0x0D	; 13
    235a:	97 8f       	std	Z+31, r25	; 0x1f
    235c:	86 8f       	std	Z+30, r24	; 0x1e
    235e:	82 e3       	ldi	r24, 0x32	; 50
    2360:	90 e1       	ldi	r25, 0x10	; 16
    2362:	91 a3       	std	Z+33, r25	; 0x21
    2364:	80 a3       	std	Z+32, r24	; 0x20
    2366:	8d e6       	ldi	r24, 0x6D	; 109
    2368:	90 e1       	ldi	r25, 0x10	; 16
    236a:	93 a3       	std	Z+35, r25	; 0x23
    236c:	82 a3       	std	Z+34, r24	; 0x22
    236e:	84 ed       	ldi	r24, 0xD4	; 212
    2370:	9f e0       	ldi	r25, 0x0F	; 15
    2372:	95 a3       	std	Z+37, r25	; 0x25
    2374:	84 a3       	std	Z+36, r24	; 0x24
    2376:	8c e9       	ldi	r24, 0x9C	; 156
    2378:	9f e0       	ldi	r25, 0x0F	; 15
    237a:	97 a3       	std	Z+39, r25	; 0x27
    237c:	86 a3       	std	Z+38, r24	; 0x26
    237e:	81 e7       	ldi	r24, 0x71	; 113
    2380:	9e e0       	ldi	r25, 0x0E	; 14
    2382:	91 a7       	std	Z+41, r25	; 0x29
    2384:	80 a7       	std	Z+40, r24	; 0x28
    2386:	86 e7       	ldi	r24, 0x76	; 118
    2388:	9e e0       	ldi	r25, 0x0E	; 14
    238a:	93 a7       	std	Z+43, r25	; 0x2b
    238c:	82 a7       	std	Z+42, r24	; 0x2a
    238e:	85 e8       	ldi	r24, 0x85	; 133
    2390:	9e e0       	ldi	r25, 0x0E	; 14
    2392:	95 a7       	std	Z+45, r25	; 0x2d
    2394:	84 a7       	std	Z+44, r24	; 0x2c
    2396:	89 ea       	ldi	r24, 0xA9	; 169
    2398:	9e e0       	ldi	r25, 0x0E	; 14
    239a:	97 a7       	std	Z+47, r25	; 0x2f
    239c:	86 a7       	std	Z+46, r24	; 0x2e
    239e:	8b ea       	ldi	r24, 0xAB	; 171
    23a0:	9e e0       	ldi	r25, 0x0E	; 14
    23a2:	91 ab       	std	Z+49, r25	; 0x31
    23a4:	80 ab       	std	Z+48, r24	; 0x30
    23a6:	85 eb       	ldi	r24, 0xB5	; 181
    23a8:	9e e0       	ldi	r25, 0x0E	; 14
    23aa:	93 ab       	std	Z+51, r25	; 0x33
    23ac:	82 ab       	std	Z+50, r24	; 0x32
    23ae:	82 ec       	ldi	r24, 0xC2	; 194
    23b0:	9e e0       	ldi	r25, 0x0E	; 14
    23b2:	95 ab       	std	Z+53, r25	; 0x35
    23b4:	84 ab       	std	Z+52, r24	; 0x34
    23b6:	8e ec       	ldi	r24, 0xCE	; 206
    23b8:	9e e0       	ldi	r25, 0x0E	; 14
    23ba:	97 ab       	std	Z+55, r25	; 0x37
    23bc:	86 ab       	std	Z+54, r24	; 0x36
    23be:	86 ee       	ldi	r24, 0xE6	; 230
    23c0:	9e e0       	ldi	r25, 0x0E	; 14
    23c2:	91 af       	std	Z+57, r25	; 0x39
    23c4:	80 af       	std	Z+56, r24	; 0x38
    23c6:	89 ef       	ldi	r24, 0xF9	; 249
    23c8:	9e e0       	ldi	r25, 0x0E	; 14
    23ca:	93 af       	std	Z+59, r25	; 0x3b
    23cc:	82 af       	std	Z+58, r24	; 0x3a
    23ce:	84 e0       	ldi	r24, 0x04	; 4
    23d0:	9f e0       	ldi	r25, 0x0F	; 15
    23d2:	95 af       	std	Z+61, r25	; 0x3d
    23d4:	84 af       	std	Z+60, r24	; 0x3c
    23d6:	81 e3       	ldi	r24, 0x31	; 49
    23d8:	9f e0       	ldi	r25, 0x0F	; 15
    23da:	97 af       	std	Z+63, r25	; 0x3f
    23dc:	86 af       	std	Z+62, r24	; 0x3e
    23de:	df 01       	movw	r26, r30
    23e0:	a0 5c       	subi	r26, 0xC0	; 192
    23e2:	bf 4f       	sbci	r27, 0xFF	; 255
    23e4:	8c ea       	ldi	r24, 0xAC	; 172
    23e6:	90 e1       	ldi	r25, 0x10	; 16
    23e8:	11 96       	adiw	r26, 0x01	; 1
    23ea:	9c 93       	st	X, r25
    23ec:	8e 93       	st	-X, r24
    23ee:	12 96       	adiw	r26, 0x02	; 2
    23f0:	87 eb       	ldi	r24, 0xB7	; 183
    23f2:	90 e1       	ldi	r25, 0x10	; 16
    23f4:	11 96       	adiw	r26, 0x01	; 1
    23f6:	9c 93       	st	X, r25
    23f8:	8e 93       	st	-X, r24
    23fa:	12 96       	adiw	r26, 0x02	; 2
    23fc:	88 ed       	ldi	r24, 0xD8	; 216
    23fe:	90 e1       	ldi	r25, 0x10	; 16
    2400:	11 96       	adiw	r26, 0x01	; 1
    2402:	9c 93       	st	X, r25
    2404:	8e 93       	st	-X, r24
    2406:	12 96       	adiw	r26, 0x02	; 2
    2408:	88 e2       	ldi	r24, 0x28	; 40
    240a:	91 e1       	ldi	r25, 0x11	; 17
    240c:	11 96       	adiw	r26, 0x01	; 1
    240e:	9c 93       	st	X, r25
    2410:	8e 93       	st	-X, r24
    2412:	12 96       	adiw	r26, 0x02	; 2
    2414:	80 e3       	ldi	r24, 0x30	; 48
    2416:	91 e1       	ldi	r25, 0x11	; 17
    2418:	8d 93       	st	X+, r24
    241a:	9c 93       	st	X, r25
}
    241c:	cf 01       	movw	r24, r30
    241e:	08 95       	ret

00002420 <KEYPAD_flush>:
	return data;
}
/***flush***/
void KEYPAD_flush(void)
{
	KEYPADSTRINGINDEX=0;
    2420:	10 92 78 02 	sts	0x0278, r1	; 0x800278 <KEYPADSTRINGINDEX>
	keypadstring[KEYPADSTRINGINDEX]='\0';
    2424:	e0 91 78 02 	lds	r30, 0x0278	; 0x800278 <KEYPADSTRINGINDEX>
    2428:	f0 e0       	ldi	r31, 0x00	; 0
    242a:	ef 59       	subi	r30, 0x9F	; 159
    242c:	fd 4f       	sbci	r31, 0xFD	; 253
    242e:	10 82       	st	Z, r1
    2430:	08 95       	ret

00002432 <KEYPAD_getkey>:
	*keypad_PORT|=(1<<KEYPADLINE_1) | (1<<KEYPADLINE_2) | (1<<KEYPADLINE_3) | (1<<KEYPADLINE_4);
	//Going to use pull down method.
	return keypad;
}
char KEYPAD_getkey(void)
{
    2432:	cf 93       	push	r28
    2434:	df 93       	push	r29
    2436:	21 e0       	ldi	r18, 0x01	; 1
	uint8_t HL;
	char c='\0';
    2438:	80 e0       	ldi	r24, 0x00	; 0
				*keypad_PORT|=(1<<KEYPADLINE_1);
				break;
			case 1: //line 2 index 1
				*keypad_DDR|=(1<<KEYPADLINE_2);
				*keypad_PORT&=~(1<<KEYPADLINE_2);
				keypad_dataf.line_2=*keypad_PIN & ((1<<KEYPADDATA_1) | (1<<KEYPADDATA_2) | (1<<KEYPADDATA_3) | (1<<KEYPADDATA_4));
    243a:	a0 e7       	ldi	r26, 0x70	; 112
    243c:	b2 e0       	ldi	r27, 0x02	; 2
				HL=KEYPADhl(keypad_datai.line_2,keypad_dataf.line_2);
    243e:	e4 e7       	ldi	r30, 0x74	; 116
    2440:	f2 e0       	ldi	r31, 0x02	; 2
					if(HL == (1<<KEYPADDATA_2))
						c=keypadvalue[1][1];
					if(HL == (1<<KEYPADDATA_3))
						c=keypadvalue[1][2];
					if(HL == (1<<KEYPADDATA_4))
						c=keypadvalue[1][3];
    2442:	60 e0       	ldi	r22, 0x00	; 0
    2444:	71 e0       	ldi	r23, 0x01	; 1
    2446:	01 c0       	rjmp	.+2      	; 0x244a <KEYPAD_getkey+0x18>
    2448:	2f 5f       	subi	r18, 0xFF	; 255
{
	uint8_t HL;
	char c='\0';
	uint8_t keypad_option;
	for(keypad_option=0;keypad_option<KEYPADLINES;keypad_option++){
		switch (keypad_option)
    244a:	9f ef       	ldi	r25, 0xFF	; 255
    244c:	92 0f       	add	r25, r18
    244e:	91 30       	cpi	r25, 0x01	; 1
    2450:	09 f4       	brne	.+2      	; 0x2454 <KEYPAD_getkey+0x22>
    2452:	4b c0       	rjmp	.+150    	; 0x24ea <KEYPAD_getkey+0xb8>
    2454:	38 f0       	brcs	.+14     	; 0x2464 <KEYPAD_getkey+0x32>
    2456:	92 30       	cpi	r25, 0x02	; 2
    2458:	09 f4       	brne	.+2      	; 0x245c <KEYPAD_getkey+0x2a>
    245a:	8c c0       	rjmp	.+280    	; 0x2574 <KEYPAD_getkey+0x142>
    245c:	93 30       	cpi	r25, 0x03	; 3
    245e:	09 f4       	brne	.+2      	; 0x2462 <KEYPAD_getkey+0x30>
    2460:	ce c0       	rjmp	.+412    	; 0x25fe <KEYPAD_getkey+0x1cc>
    2462:	0e c1       	rjmp	.+540    	; 0x2680 <KEYPAD_getkey+0x24e>
		{
			case 0: //line 1 index 0
				*keypad_DDR|=(1<<KEYPADLINE_1);
    2464:	40 91 7b 02 	lds	r20, 0x027B	; 0x80027b <keypad_DDR>
    2468:	50 91 7c 02 	lds	r21, 0x027C	; 0x80027c <keypad_DDR+0x1>
    246c:	ea 01       	movw	r28, r20
    246e:	98 81       	ld	r25, Y
    2470:	90 68       	ori	r25, 0x80	; 128
    2472:	98 83       	st	Y, r25
				*keypad_PORT&=~(1<<KEYPADLINE_1);
    2474:	40 91 5f 02 	lds	r20, 0x025F	; 0x80025f <keypad_PORT>
    2478:	50 91 60 02 	lds	r21, 0x0260	; 0x800260 <keypad_PORT+0x1>
    247c:	ea 01       	movw	r28, r20
    247e:	98 81       	ld	r25, Y
    2480:	9f 77       	andi	r25, 0x7F	; 127
    2482:	98 83       	st	Y, r25
				keypad_dataf.line_1=*keypad_PIN & ((1<<KEYPADDATA_1) | (1<<KEYPADDATA_2) | (1<<KEYPADDATA_3) | (1<<KEYPADDATA_4));
    2484:	40 91 79 02 	lds	r20, 0x0279	; 0x800279 <keypad_PIN>
    2488:	50 91 7a 02 	lds	r21, 0x027A	; 0x80027a <keypad_PIN+0x1>
    248c:	ea 01       	movw	r28, r20
    248e:	38 81       	ld	r19, Y
    2490:	34 77       	andi	r19, 0x74	; 116
    2492:	3c 93       	st	X, r19
				HL=KEYPADhl(keypad_datai.line_1,keypad_dataf.line_1);
    2494:	90 81       	ld	r25, Z
uint8_t KEYPADhl(uint8_t xi, uint8_t xf)
{
	uint8_t i;
	//printf("KEYPADhl\n");
	i=xf^xi;
	i&=xi;
    2496:	43 2f       	mov	r20, r19
    2498:	49 27       	eor	r20, r25
    249a:	94 23       	and	r25, r20
			case 0: //line 1 index 0
				*keypad_DDR|=(1<<KEYPADLINE_1);
				*keypad_PORT&=~(1<<KEYPADLINE_1);
				keypad_dataf.line_1=*keypad_PIN & ((1<<KEYPADDATA_1) | (1<<KEYPADDATA_2) | (1<<KEYPADDATA_3) | (1<<KEYPADDATA_4));
				HL=KEYPADhl(keypad_datai.line_1,keypad_dataf.line_1);
				keypad_datai.line_1=keypad_dataf.line_1;
    249c:	30 83       	st	Z, r19
				if(HL){
    249e:	99 23       	and	r25, r25
    24a0:	99 f0       	breq	.+38     	; 0x24c8 <KEYPAD_getkey+0x96>
					//decode index line one column what ?
					if(HL == (1<<KEYPADDATA_1))
    24a2:	94 30       	cpi	r25, 0x04	; 4
    24a4:	19 f4       	brne	.+6      	; 0x24ac <KEYPAD_getkey+0x7a>
						c=keypadvalue[0][0];
    24a6:	eb 01       	movw	r28, r22
    24a8:	88 81       	ld	r24, Y
    24aa:	0a c0       	rjmp	.+20     	; 0x24c0 <KEYPAD_getkey+0x8e>
					if(HL == (1<<KEYPADDATA_2))
    24ac:	90 31       	cpi	r25, 0x10	; 16
    24ae:	19 f4       	brne	.+6      	; 0x24b6 <KEYPAD_getkey+0x84>
						c=keypadvalue[0][1];
    24b0:	eb 01       	movw	r28, r22
    24b2:	89 81       	ldd	r24, Y+1	; 0x01
    24b4:	09 c0       	rjmp	.+18     	; 0x24c8 <KEYPAD_getkey+0x96>
					if(HL == (1<<KEYPADDATA_3))
    24b6:	90 32       	cpi	r25, 0x20	; 32
    24b8:	19 f4       	brne	.+6      	; 0x24c0 <KEYPAD_getkey+0x8e>
						c=keypadvalue[0][2];
    24ba:	eb 01       	movw	r28, r22
    24bc:	8a 81       	ldd	r24, Y+2	; 0x02
    24be:	04 c0       	rjmp	.+8      	; 0x24c8 <KEYPAD_getkey+0x96>
					if(HL == (1<<KEYPADDATA_4))
    24c0:	90 34       	cpi	r25, 0x40	; 64
    24c2:	11 f4       	brne	.+4      	; 0x24c8 <KEYPAD_getkey+0x96>
						c=keypadvalue[0][3];
    24c4:	eb 01       	movw	r28, r22
    24c6:	8b 81       	ldd	r24, Y+3	; 0x03
				}
				*keypad_DDR&=~(1<<KEYPADLINE_1);
    24c8:	40 91 7b 02 	lds	r20, 0x027B	; 0x80027b <keypad_DDR>
    24cc:	50 91 7c 02 	lds	r21, 0x027C	; 0x80027c <keypad_DDR+0x1>
    24d0:	ea 01       	movw	r28, r20
    24d2:	98 81       	ld	r25, Y
    24d4:	9f 77       	andi	r25, 0x7F	; 127
    24d6:	98 83       	st	Y, r25
				*keypad_PORT|=(1<<KEYPADLINE_1);
    24d8:	40 91 5f 02 	lds	r20, 0x025F	; 0x80025f <keypad_PORT>
    24dc:	50 91 60 02 	lds	r21, 0x0260	; 0x800260 <keypad_PORT+0x1>
    24e0:	ea 01       	movw	r28, r20
    24e2:	98 81       	ld	r25, Y
    24e4:	90 68       	ori	r25, 0x80	; 128
    24e6:	98 83       	st	Y, r25
				break;
    24e8:	af cf       	rjmp	.-162    	; 0x2448 <KEYPAD_getkey+0x16>
			case 1: //line 2 index 1
				*keypad_DDR|=(1<<KEYPADLINE_2);
    24ea:	40 91 7b 02 	lds	r20, 0x027B	; 0x80027b <keypad_DDR>
    24ee:	50 91 7c 02 	lds	r21, 0x027C	; 0x80027c <keypad_DDR+0x1>
    24f2:	ea 01       	movw	r28, r20
    24f4:	98 81       	ld	r25, Y
    24f6:	91 60       	ori	r25, 0x01	; 1
    24f8:	98 83       	st	Y, r25
				*keypad_PORT&=~(1<<KEYPADLINE_2);
    24fa:	40 91 5f 02 	lds	r20, 0x025F	; 0x80025f <keypad_PORT>
    24fe:	50 91 60 02 	lds	r21, 0x0260	; 0x800260 <keypad_PORT+0x1>
    2502:	ea 01       	movw	r28, r20
    2504:	98 81       	ld	r25, Y
    2506:	9e 7f       	andi	r25, 0xFE	; 254
    2508:	98 83       	st	Y, r25
				keypad_dataf.line_2=*keypad_PIN & ((1<<KEYPADDATA_1) | (1<<KEYPADDATA_2) | (1<<KEYPADDATA_3) | (1<<KEYPADDATA_4));
    250a:	40 91 79 02 	lds	r20, 0x0279	; 0x800279 <keypad_PIN>
    250e:	50 91 7a 02 	lds	r21, 0x027A	; 0x80027a <keypad_PIN+0x1>
    2512:	ea 01       	movw	r28, r20
    2514:	38 81       	ld	r19, Y
    2516:	34 77       	andi	r19, 0x74	; 116
    2518:	11 96       	adiw	r26, 0x01	; 1
    251a:	3c 93       	st	X, r19
    251c:	11 97       	sbiw	r26, 0x01	; 1
				HL=KEYPADhl(keypad_datai.line_2,keypad_dataf.line_2);
    251e:	91 81       	ldd	r25, Z+1	; 0x01
uint8_t KEYPADhl(uint8_t xi, uint8_t xf)
{
	uint8_t i;
	//printf("KEYPADhl\n");
	i=xf^xi;
	i&=xi;
    2520:	43 2f       	mov	r20, r19
    2522:	49 27       	eor	r20, r25
    2524:	94 23       	and	r25, r20
			case 1: //line 2 index 1
				*keypad_DDR|=(1<<KEYPADLINE_2);
				*keypad_PORT&=~(1<<KEYPADLINE_2);
				keypad_dataf.line_2=*keypad_PIN & ((1<<KEYPADDATA_1) | (1<<KEYPADDATA_2) | (1<<KEYPADDATA_3) | (1<<KEYPADDATA_4));
				HL=KEYPADhl(keypad_datai.line_2,keypad_dataf.line_2);
				keypad_datai.line_2=keypad_dataf.line_2;
    2526:	31 83       	std	Z+1, r19	; 0x01
				if(HL){
    2528:	99 23       	and	r25, r25
    252a:	99 f0       	breq	.+38     	; 0x2552 <KEYPAD_getkey+0x120>
					//decode index line two column what ?
					if(HL == (1<<KEYPADDATA_1))
    252c:	94 30       	cpi	r25, 0x04	; 4
    252e:	19 f4       	brne	.+6      	; 0x2536 <KEYPAD_getkey+0x104>
						c=keypadvalue[1][0];
    2530:	eb 01       	movw	r28, r22
    2532:	8c 81       	ldd	r24, Y+4	; 0x04
    2534:	0a c0       	rjmp	.+20     	; 0x254a <KEYPAD_getkey+0x118>
					if(HL == (1<<KEYPADDATA_2))
    2536:	90 31       	cpi	r25, 0x10	; 16
    2538:	19 f4       	brne	.+6      	; 0x2540 <KEYPAD_getkey+0x10e>
						c=keypadvalue[1][1];
    253a:	eb 01       	movw	r28, r22
    253c:	8d 81       	ldd	r24, Y+5	; 0x05
    253e:	09 c0       	rjmp	.+18     	; 0x2552 <KEYPAD_getkey+0x120>
					if(HL == (1<<KEYPADDATA_3))
    2540:	90 32       	cpi	r25, 0x20	; 32
    2542:	19 f4       	brne	.+6      	; 0x254a <KEYPAD_getkey+0x118>
						c=keypadvalue[1][2];
    2544:	eb 01       	movw	r28, r22
    2546:	8e 81       	ldd	r24, Y+6	; 0x06
    2548:	04 c0       	rjmp	.+8      	; 0x2552 <KEYPAD_getkey+0x120>
					if(HL == (1<<KEYPADDATA_4))
    254a:	90 34       	cpi	r25, 0x40	; 64
    254c:	11 f4       	brne	.+4      	; 0x2552 <KEYPAD_getkey+0x120>
						c=keypadvalue[1][3];
    254e:	eb 01       	movw	r28, r22
    2550:	8f 81       	ldd	r24, Y+7	; 0x07
				}
				*keypad_DDR&=~(1<<KEYPADLINE_2);
    2552:	40 91 7b 02 	lds	r20, 0x027B	; 0x80027b <keypad_DDR>
    2556:	50 91 7c 02 	lds	r21, 0x027C	; 0x80027c <keypad_DDR+0x1>
    255a:	ea 01       	movw	r28, r20
    255c:	98 81       	ld	r25, Y
    255e:	9e 7f       	andi	r25, 0xFE	; 254
    2560:	98 83       	st	Y, r25
				*keypad_PORT|=(1<<KEYPADLINE_2);
    2562:	40 91 5f 02 	lds	r20, 0x025F	; 0x80025f <keypad_PORT>
    2566:	50 91 60 02 	lds	r21, 0x0260	; 0x800260 <keypad_PORT+0x1>
    256a:	ea 01       	movw	r28, r20
    256c:	98 81       	ld	r25, Y
    256e:	91 60       	ori	r25, 0x01	; 1
    2570:	98 83       	st	Y, r25
				break;
    2572:	6a cf       	rjmp	.-300    	; 0x2448 <KEYPAD_getkey+0x16>
			case 2: //line 3 index 2
				*keypad_DDR|=(1<<KEYPADLINE_3);
    2574:	40 91 7b 02 	lds	r20, 0x027B	; 0x80027b <keypad_DDR>
    2578:	50 91 7c 02 	lds	r21, 0x027C	; 0x80027c <keypad_DDR+0x1>
    257c:	ea 01       	movw	r28, r20
    257e:	98 81       	ld	r25, Y
    2580:	92 60       	ori	r25, 0x02	; 2
    2582:	98 83       	st	Y, r25
				*keypad_PORT&=~(1<<KEYPADLINE_3);
    2584:	40 91 5f 02 	lds	r20, 0x025F	; 0x80025f <keypad_PORT>
    2588:	50 91 60 02 	lds	r21, 0x0260	; 0x800260 <keypad_PORT+0x1>
    258c:	ea 01       	movw	r28, r20
    258e:	98 81       	ld	r25, Y
    2590:	9d 7f       	andi	r25, 0xFD	; 253
    2592:	98 83       	st	Y, r25
				keypad_dataf.line_3=*keypad_PIN & ((1<<KEYPADDATA_1) | (1<<KEYPADDATA_2) | (1<<KEYPADDATA_3) | (1<<KEYPADDATA_4));
    2594:	40 91 79 02 	lds	r20, 0x0279	; 0x800279 <keypad_PIN>
    2598:	50 91 7a 02 	lds	r21, 0x027A	; 0x80027a <keypad_PIN+0x1>
    259c:	ea 01       	movw	r28, r20
    259e:	38 81       	ld	r19, Y
    25a0:	34 77       	andi	r19, 0x74	; 116
    25a2:	12 96       	adiw	r26, 0x02	; 2
    25a4:	3c 93       	st	X, r19
    25a6:	12 97       	sbiw	r26, 0x02	; 2
				HL=KEYPADhl(keypad_datai.line_3,keypad_dataf.line_3);
    25a8:	92 81       	ldd	r25, Z+2	; 0x02
uint8_t KEYPADhl(uint8_t xi, uint8_t xf)
{
	uint8_t i;
	//printf("KEYPADhl\n");
	i=xf^xi;
	i&=xi;
    25aa:	43 2f       	mov	r20, r19
    25ac:	49 27       	eor	r20, r25
    25ae:	94 23       	and	r25, r20
			case 2: //line 3 index 2
				*keypad_DDR|=(1<<KEYPADLINE_3);
				*keypad_PORT&=~(1<<KEYPADLINE_3);
				keypad_dataf.line_3=*keypad_PIN & ((1<<KEYPADDATA_1) | (1<<KEYPADDATA_2) | (1<<KEYPADDATA_3) | (1<<KEYPADDATA_4));
				HL=KEYPADhl(keypad_datai.line_3,keypad_dataf.line_3);
				keypad_datai.line_3=keypad_dataf.line_3;
    25b0:	32 83       	std	Z+2, r19	; 0x02
				if(HL){
    25b2:	99 23       	and	r25, r25
    25b4:	99 f0       	breq	.+38     	; 0x25dc <KEYPAD_getkey+0x1aa>
					//decode index line three column what ?
					if(HL == (1<<KEYPADDATA_1))
    25b6:	94 30       	cpi	r25, 0x04	; 4
    25b8:	19 f4       	brne	.+6      	; 0x25c0 <KEYPAD_getkey+0x18e>
						c=keypadvalue[2][0];
    25ba:	eb 01       	movw	r28, r22
    25bc:	88 85       	ldd	r24, Y+8	; 0x08
    25be:	0a c0       	rjmp	.+20     	; 0x25d4 <KEYPAD_getkey+0x1a2>
					if(HL == (1<<KEYPADDATA_2))
    25c0:	90 31       	cpi	r25, 0x10	; 16
    25c2:	19 f4       	brne	.+6      	; 0x25ca <KEYPAD_getkey+0x198>
						c=keypadvalue[2][1];
    25c4:	eb 01       	movw	r28, r22
    25c6:	89 85       	ldd	r24, Y+9	; 0x09
    25c8:	09 c0       	rjmp	.+18     	; 0x25dc <KEYPAD_getkey+0x1aa>
					if(HL == (1<<KEYPADDATA_3))
    25ca:	90 32       	cpi	r25, 0x20	; 32
    25cc:	19 f4       	brne	.+6      	; 0x25d4 <KEYPAD_getkey+0x1a2>
						c=keypadvalue[2][2];
    25ce:	eb 01       	movw	r28, r22
    25d0:	8a 85       	ldd	r24, Y+10	; 0x0a
    25d2:	04 c0       	rjmp	.+8      	; 0x25dc <KEYPAD_getkey+0x1aa>
					if(HL == (1<<KEYPADDATA_4))
    25d4:	90 34       	cpi	r25, 0x40	; 64
    25d6:	11 f4       	brne	.+4      	; 0x25dc <KEYPAD_getkey+0x1aa>
						c=keypadvalue[2][3];
    25d8:	eb 01       	movw	r28, r22
    25da:	8b 85       	ldd	r24, Y+11	; 0x0b
				}
				*keypad_DDR&=~(1<<KEYPADLINE_3);
    25dc:	40 91 7b 02 	lds	r20, 0x027B	; 0x80027b <keypad_DDR>
    25e0:	50 91 7c 02 	lds	r21, 0x027C	; 0x80027c <keypad_DDR+0x1>
    25e4:	ea 01       	movw	r28, r20
    25e6:	98 81       	ld	r25, Y
    25e8:	9d 7f       	andi	r25, 0xFD	; 253
    25ea:	98 83       	st	Y, r25
				*keypad_PORT|=(1<<KEYPADLINE_3);
    25ec:	40 91 5f 02 	lds	r20, 0x025F	; 0x80025f <keypad_PORT>
    25f0:	50 91 60 02 	lds	r21, 0x0260	; 0x800260 <keypad_PORT+0x1>
    25f4:	ea 01       	movw	r28, r20
    25f6:	98 81       	ld	r25, Y
    25f8:	92 60       	ori	r25, 0x02	; 2
    25fa:	98 83       	st	Y, r25
				break;
    25fc:	25 cf       	rjmp	.-438    	; 0x2448 <KEYPAD_getkey+0x16>
			case 3: //line 4 index 3
				*keypad_DDR|=(1<<KEYPADLINE_4);
    25fe:	e0 91 7b 02 	lds	r30, 0x027B	; 0x80027b <keypad_DDR>
    2602:	f0 91 7c 02 	lds	r31, 0x027C	; 0x80027c <keypad_DDR+0x1>
    2606:	90 81       	ld	r25, Z
    2608:	98 60       	ori	r25, 0x08	; 8
    260a:	90 83       	st	Z, r25
				*keypad_PORT&=~(1<<KEYPADLINE_4);
    260c:	e0 91 5f 02 	lds	r30, 0x025F	; 0x80025f <keypad_PORT>
    2610:	f0 91 60 02 	lds	r31, 0x0260	; 0x800260 <keypad_PORT+0x1>
    2614:	90 81       	ld	r25, Z
    2616:	97 7f       	andi	r25, 0xF7	; 247
    2618:	90 83       	st	Z, r25
				keypad_dataf.line_4=*keypad_PIN & ((1<<KEYPADDATA_1) | (1<<KEYPADDATA_2) | (1<<KEYPADDATA_3) | (1<<KEYPADDATA_4));
    261a:	e0 91 79 02 	lds	r30, 0x0279	; 0x800279 <keypad_PIN>
    261e:	f0 91 7a 02 	lds	r31, 0x027A	; 0x80027a <keypad_PIN+0x1>
    2622:	20 81       	ld	r18, Z
    2624:	24 77       	andi	r18, 0x74	; 116
    2626:	20 93 73 02 	sts	0x0273, r18	; 0x800273 <keypad_dataf+0x3>
				HL=KEYPADhl(keypad_datai.line_4,keypad_dataf.line_4);
    262a:	e4 e7       	ldi	r30, 0x74	; 116
    262c:	f2 e0       	ldi	r31, 0x02	; 2
    262e:	93 81       	ldd	r25, Z+3	; 0x03
uint8_t KEYPADhl(uint8_t xi, uint8_t xf)
{
	uint8_t i;
	//printf("KEYPADhl\n");
	i=xf^xi;
	i&=xi;
    2630:	32 2f       	mov	r19, r18
    2632:	39 27       	eor	r19, r25
    2634:	93 23       	and	r25, r19
			case 3: //line 4 index 3
				*keypad_DDR|=(1<<KEYPADLINE_4);
				*keypad_PORT&=~(1<<KEYPADLINE_4);
				keypad_dataf.line_4=*keypad_PIN & ((1<<KEYPADDATA_1) | (1<<KEYPADDATA_2) | (1<<KEYPADDATA_3) | (1<<KEYPADDATA_4));
				HL=KEYPADhl(keypad_datai.line_4,keypad_dataf.line_4);
				keypad_datai.line_4=keypad_dataf.line_4;
    2636:	23 83       	std	Z+3, r18	; 0x03
				if(HL){
    2638:	99 23       	and	r25, r25
    263a:	99 f0       	breq	.+38     	; 0x2662 <KEYPAD_getkey+0x230>
					//decode index line four column what ?
					if(HL == (1<<KEYPADDATA_1))
    263c:	94 30       	cpi	r25, 0x04	; 4
    263e:	19 f4       	brne	.+6      	; 0x2646 <KEYPAD_getkey+0x214>
						c=keypadvalue[3][0];
    2640:	80 91 0c 01 	lds	r24, 0x010C	; 0x80010c <__DATA_REGION_ORIGIN__+0xc>
    2644:	0a c0       	rjmp	.+20     	; 0x265a <KEYPAD_getkey+0x228>
					if(HL == (1<<KEYPADDATA_2))
    2646:	90 31       	cpi	r25, 0x10	; 16
    2648:	19 f4       	brne	.+6      	; 0x2650 <KEYPAD_getkey+0x21e>
						c=keypadvalue[3][1];
    264a:	80 91 0d 01 	lds	r24, 0x010D	; 0x80010d <__DATA_REGION_ORIGIN__+0xd>
    264e:	09 c0       	rjmp	.+18     	; 0x2662 <KEYPAD_getkey+0x230>
					if(HL == (1<<KEYPADDATA_3))
    2650:	90 32       	cpi	r25, 0x20	; 32
    2652:	19 f4       	brne	.+6      	; 0x265a <KEYPAD_getkey+0x228>
						c=keypadvalue[3][2];
    2654:	80 91 0e 01 	lds	r24, 0x010E	; 0x80010e <__DATA_REGION_ORIGIN__+0xe>
    2658:	04 c0       	rjmp	.+8      	; 0x2662 <KEYPAD_getkey+0x230>
					if(HL == (1<<KEYPADDATA_4))
    265a:	90 34       	cpi	r25, 0x40	; 64
    265c:	11 f4       	brne	.+4      	; 0x2662 <KEYPAD_getkey+0x230>
						c=keypadvalue[3][3];
    265e:	80 91 0f 01 	lds	r24, 0x010F	; 0x80010f <__DATA_REGION_ORIGIN__+0xf>
				}
				*keypad_DDR&=~(1<<KEYPADLINE_4);
    2662:	e0 91 7b 02 	lds	r30, 0x027B	; 0x80027b <keypad_DDR>
    2666:	f0 91 7c 02 	lds	r31, 0x027C	; 0x80027c <keypad_DDR+0x1>
    266a:	90 81       	ld	r25, Z
    266c:	97 7f       	andi	r25, 0xF7	; 247
    266e:	90 83       	st	Z, r25
				*keypad_PORT|=(1<<KEYPADLINE_4);
    2670:	e0 91 5f 02 	lds	r30, 0x025F	; 0x80025f <keypad_PORT>
    2674:	f0 91 60 02 	lds	r31, 0x0260	; 0x800260 <keypad_PORT+0x1>
    2678:	90 81       	ld	r25, Z
    267a:	98 60       	ori	r25, 0x08	; 8
    267c:	90 83       	st	Z, r25
    267e:	03 c0       	rjmp	.+6      	; 0x2686 <KEYPAD_getkey+0x254>
char KEYPAD_getkey(void)
{
	uint8_t HL;
	char c='\0';
	uint8_t keypad_option;
	for(keypad_option=0;keypad_option<KEYPADLINES;keypad_option++){
    2680:	24 30       	cpi	r18, 0x04	; 4
    2682:	08 f4       	brcc	.+2      	; 0x2686 <KEYPAD_getkey+0x254>
    2684:	e1 ce       	rjmp	.-574    	; 0x2448 <KEYPAD_getkey+0x16>
			default:
				break;
		}//endswitch
	}//endfor
	return c;
}
    2686:	df 91       	pop	r29
    2688:	cf 91       	pop	r28
    268a:	08 95       	ret

0000268c <KEYPAD_get>:
/***get***/
struct keypadata KEYPAD_get(void)
{
	char c;
	struct keypadata data;
	c=KEYPAD_getkey();
    268c:	d2 de       	rcall	.-604    	; 0x2432 <KEYPAD_getkey>
	if(c){
    268e:	88 23       	and	r24, r24
    2690:	09 f1       	breq	.+66     	; 0x26d4 <KEYPAD_get+0x48>
		if(c==KEYPADENTERKEY){
    2692:	84 34       	cpi	r24, 0x44	; 68
    2694:	49 f4       	brne	.+18     	; 0x26a8 <KEYPAD_get+0x1c>
			keypadstring[KEYPADSTRINGINDEX]='\0';
    2696:	e0 91 78 02 	lds	r30, 0x0278	; 0x800278 <KEYPADSTRINGINDEX>
    269a:	f0 e0       	ldi	r31, 0x00	; 0
    269c:	ef 59       	subi	r30, 0x9F	; 159
    269e:	fd 4f       	sbci	r31, 0xFD	; 253
    26a0:	10 82       	st	Z, r1
			KEYPADSTRINGINDEX=0;
    26a2:	10 92 78 02 	sts	0x0278, r1	; 0x800278 <KEYPADSTRINGINDEX>
    26a6:	17 c0       	rjmp	.+46     	; 0x26d6 <KEYPAD_get+0x4a>
			data.string=keypadstring;
		}else{
			if(KEYPADSTRINGINDEX<(KEYPADSTRINGSIZE-1)){
    26a8:	90 91 78 02 	lds	r25, 0x0278	; 0x800278 <KEYPADSTRINGINDEX>
    26ac:	9e 30       	cpi	r25, 0x0E	; 14
    26ae:	98 f4       	brcc	.+38     	; 0x26d6 <KEYPAD_get+0x4a>
				keypadstring[KEYPADSTRINGINDEX]=c;
    26b0:	e0 91 78 02 	lds	r30, 0x0278	; 0x800278 <KEYPADSTRINGINDEX>
    26b4:	f0 e0       	ldi	r31, 0x00	; 0
    26b6:	ef 59       	subi	r30, 0x9F	; 159
    26b8:	fd 4f       	sbci	r31, 0xFD	; 253
    26ba:	80 83       	st	Z, r24
				KEYPADSTRINGINDEX++;
    26bc:	90 91 78 02 	lds	r25, 0x0278	; 0x800278 <KEYPADSTRINGINDEX>
    26c0:	9f 5f       	subi	r25, 0xFF	; 255
    26c2:	90 93 78 02 	sts	0x0278, r25	; 0x800278 <KEYPADSTRINGINDEX>
				keypadstring[KEYPADSTRINGINDEX]='\0';
    26c6:	e0 91 78 02 	lds	r30, 0x0278	; 0x800278 <KEYPADSTRINGINDEX>
    26ca:	f0 e0       	ldi	r31, 0x00	; 0
    26cc:	ef 59       	subi	r30, 0x9F	; 159
    26ce:	fd 4f       	sbci	r31, 0xFD	; 253
    26d0:	10 82       	st	Z, r1
    26d2:	01 c0       	rjmp	.+2      	; 0x26d6 <KEYPAD_get+0x4a>
    26d4:	80 e0       	ldi	r24, 0x00	; 0
				data.string=keypadstring;
			}
		}
		data.character=c;
	}
	return data;
    26d6:	21 e6       	ldi	r18, 0x61	; 97
    26d8:	32 e0       	ldi	r19, 0x02	; 2
    26da:	48 2f       	mov	r20, r24
}
    26dc:	84 2f       	mov	r24, r20
    26de:	b9 01       	movw	r22, r18
    26e0:	08 95       	ret

000026e2 <KEYPADenable>:
uint8_t KEYPADhl(uint8_t xi, uint8_t xf);
/*
** procedure and function
*/
KEYPAD KEYPADenable(volatile uint8_t *ddr, volatile uint8_t *pin, volatile uint8_t *port)
{
    26e2:	cf 93       	push	r28
    26e4:	df 93       	push	r29
    26e6:	00 d0       	rcall	.+0      	; 0x26e8 <KEYPADenable+0x6>
    26e8:	00 d0       	rcall	.+0      	; 0x26ea <KEYPADenable+0x8>
    26ea:	00 d0       	rcall	.+0      	; 0x26ec <KEYPADenable+0xa>
    26ec:	cd b7       	in	r28, 0x3d	; 61
    26ee:	de b7       	in	r29, 0x3e	; 62
    26f0:	fc 01       	movw	r30, r24
	//LOCAL VARIABLES
	uint8_t tSREG;
	tSREG=SREG;
    26f2:	2f b7       	in	r18, 0x3f	; 63
	SREG&=~(1<<GLOBAL_INTERRUPT_ENABLE);
    26f4:	9f b7       	in	r25, 0x3f	; 63
    26f6:	9f 77       	andi	r25, 0x7F	; 127
    26f8:	9f bf       	out	0x3f, r25	; 63
	//ALLOCAO MEMORIA PARA Estrutura
	KEYPAD keypad;
	//import parametros
	keypad_DDR=ddr;
    26fa:	f0 93 7c 02 	sts	0x027C, r31	; 0x80027c <keypad_DDR+0x1>
    26fe:	e0 93 7b 02 	sts	0x027B, r30	; 0x80027b <keypad_DDR>
	keypad_PIN=pin;
    2702:	70 93 7a 02 	sts	0x027A, r23	; 0x80027a <keypad_PIN+0x1>
    2706:	60 93 79 02 	sts	0x0279, r22	; 0x800279 <keypad_PIN>
	keypad_PORT=port;
    270a:	50 93 60 02 	sts	0x0260, r21	; 0x800260 <keypad_PORT+0x1>
    270e:	40 93 5f 02 	sts	0x025F, r20	; 0x80025f <keypad_PORT>
	//inic variables
	*keypad_DDR=(1<<KEYPADLINE_1) | (1<<KEYPADLINE_2) | (1<<KEYPADLINE_3) | (1<<KEYPADLINE_4);
    2712:	8b e8       	ldi	r24, 0x8B	; 139
    2714:	80 83       	st	Z, r24
	*keypad_PORT=(1<<KEYPADDATA_1) | (1<<KEYPADDATA_2) | (1<<KEYPADDATA_3) | (1<<KEYPADDATA_4);
    2716:	e0 91 5f 02 	lds	r30, 0x025F	; 0x80025f <keypad_PORT>
    271a:	f0 91 60 02 	lds	r31, 0x0260	; 0x800260 <keypad_PORT+0x1>
    271e:	84 e7       	ldi	r24, 0x74	; 116
    2720:	80 83       	st	Z, r24
	keypad_datai.line_1=keypad_dataf.line_1=(1<<KEYPADDATA_1) | (1<<KEYPADDATA_2) | (1<<KEYPADDATA_3) | (1<<KEYPADDATA_4);
    2722:	a0 e7       	ldi	r26, 0x70	; 112
    2724:	b2 e0       	ldi	r27, 0x02	; 2
    2726:	8c 93       	st	X, r24
    2728:	e4 e7       	ldi	r30, 0x74	; 116
    272a:	f2 e0       	ldi	r31, 0x02	; 2
    272c:	80 83       	st	Z, r24
	keypad_datai.line_2=keypad_dataf.line_2=(1<<KEYPADDATA_1) | (1<<KEYPADDATA_2) | (1<<KEYPADDATA_3) | (1<<KEYPADDATA_4);
    272e:	11 96       	adiw	r26, 0x01	; 1
    2730:	8c 93       	st	X, r24
    2732:	11 97       	sbiw	r26, 0x01	; 1
    2734:	81 83       	std	Z+1, r24	; 0x01
	keypad_datai.line_3=keypad_dataf.line_3=(1<<KEYPADDATA_1) | (1<<KEYPADDATA_2) | (1<<KEYPADDATA_3) | (1<<KEYPADDATA_4);
    2736:	12 96       	adiw	r26, 0x02	; 2
    2738:	8c 93       	st	X, r24
    273a:	12 97       	sbiw	r26, 0x02	; 2
    273c:	82 83       	std	Z+2, r24	; 0x02
	keypad_datai.line_4=keypad_dataf.line_4=(1<<KEYPADDATA_1) | (1<<KEYPADDATA_2) | (1<<KEYPADDATA_3) | (1<<KEYPADDATA_4);
    273e:	13 96       	adiw	r26, 0x03	; 3
    2740:	8c 93       	st	X, r24
    2742:	83 83       	std	Z+3, r24	; 0x03
	KEYPADSTRINGINDEX=0;
    2744:	10 92 78 02 	sts	0x0278, r1	; 0x800278 <KEYPADSTRINGINDEX>
	//Direccionar apontadores para PROTOTIPOS
	keypad.getkey=KEYPAD_getkey;
	keypad.get=KEYPAD_get;
	keypad.flush=KEYPAD_flush;
	SREG=tSREG;
    2748:	2f bf       	out	0x3f, r18	; 63
	//
	*keypad_PORT|=(1<<KEYPADLINE_1) | (1<<KEYPADLINE_2) | (1<<KEYPADLINE_3) | (1<<KEYPADLINE_4);
    274a:	e0 91 5f 02 	lds	r30, 0x025F	; 0x80025f <keypad_PORT>
    274e:	f0 91 60 02 	lds	r31, 0x0260	; 0x800260 <keypad_PORT+0x1>
    2752:	80 81       	ld	r24, Z
    2754:	8b 68       	ori	r24, 0x8B	; 139
    2756:	80 83       	st	Z, r24
	//Going to use pull down method.
	return keypad;
    2758:	29 e1       	ldi	r18, 0x19	; 25
    275a:	32 e1       	ldi	r19, 0x12	; 18
    275c:	3a 83       	std	Y+2, r19	; 0x02
    275e:	29 83       	std	Y+1, r18	; 0x01
    2760:	46 e4       	ldi	r20, 0x46	; 70
    2762:	53 e1       	ldi	r21, 0x13	; 19
    2764:	5c 83       	std	Y+4, r21	; 0x04
    2766:	4b 83       	std	Y+3, r20	; 0x03
    2768:	60 e1       	ldi	r22, 0x10	; 16
    276a:	72 e1       	ldi	r23, 0x12	; 18
    276c:	7e 83       	std	Y+6, r23	; 0x06
    276e:	6d 83       	std	Y+5, r22	; 0x05
    2770:	3a 81       	ldd	r19, Y+2	; 0x02
    2772:	5c 81       	ldd	r21, Y+4	; 0x04
    2774:	7e 81       	ldd	r23, Y+6	; 0x06
}
    2776:	80 e0       	ldi	r24, 0x00	; 0
    2778:	90 e0       	ldi	r25, 0x00	; 0
    277a:	26 96       	adiw	r28, 0x06	; 6
    277c:	0f b6       	in	r0, 0x3f	; 63
    277e:	f8 94       	cli
    2780:	de bf       	out	0x3e, r29	; 62
    2782:	0f be       	out	0x3f, r0	; 63
    2784:	cd bf       	out	0x3d, r28	; 61
    2786:	df 91       	pop	r29
    2788:	cf 91       	pop	r28
    278a:	08 95       	ret

0000278c <LCD1_write>:
}
void LCD0_strobe(unsigned int num)
{
	*lcd0_PORT|=(1<<EN);
	LCD_ticks(num);
	*lcd0_PORT&=~(1<<EN);
    278c:	e0 91 89 02 	lds	r30, 0x0289	; 0x800289 <lcd1_PORT>
    2790:	f0 91 8a 02 	lds	r31, 0x028A	; 0x80028a <lcd1_PORT+0x1>
    2794:	90 81       	ld	r25, Z
    2796:	9d 7f       	andi	r25, 0xFD	; 253
    2798:	90 83       	st	Z, r25
    279a:	67 2b       	or	r22, r23
    279c:	41 f0       	breq	.+16     	; 0x27ae <LCD1_write+0x22>
    279e:	e0 91 89 02 	lds	r30, 0x0289	; 0x800289 <lcd1_PORT>
    27a2:	f0 91 8a 02 	lds	r31, 0x028A	; 0x80028a <lcd1_PORT+0x1>
    27a6:	90 81       	ld	r25, Z
    27a8:	91 60       	ori	r25, 0x01	; 1
    27aa:	90 83       	st	Z, r25
    27ac:	07 c0       	rjmp	.+14     	; 0x27bc <LCD1_write+0x30>
    27ae:	e0 91 89 02 	lds	r30, 0x0289	; 0x800289 <lcd1_PORT>
    27b2:	f0 91 8a 02 	lds	r31, 0x028A	; 0x80028a <lcd1_PORT+0x1>
    27b6:	90 81       	ld	r25, Z
    27b8:	9e 7f       	andi	r25, 0xFE	; 254
    27ba:	90 83       	st	Z, r25
    27bc:	e0 91 7f 02 	lds	r30, 0x027F	; 0x80027f <lcd1_DDR>
    27c0:	f0 91 80 02 	lds	r31, 0x0280	; 0x800280 <lcd1_DDR+0x1>
    27c4:	90 81       	ld	r25, Z
    27c6:	90 6f       	ori	r25, 0xF0	; 240
    27c8:	90 83       	st	Z, r25
    27ca:	e0 91 89 02 	lds	r30, 0x0289	; 0x800289 <lcd1_PORT>
    27ce:	f0 91 8a 02 	lds	r31, 0x028A	; 0x80028a <lcd1_PORT+0x1>
    27d2:	90 81       	ld	r25, Z
    27d4:	94 60       	ori	r25, 0x04	; 4
    27d6:	90 83       	st	Z, r25
    27d8:	88 23       	and	r24, r24
    27da:	44 f4       	brge	.+16     	; 0x27ec <LCD1_write+0x60>
    27dc:	e0 91 89 02 	lds	r30, 0x0289	; 0x800289 <lcd1_PORT>
    27e0:	f0 91 8a 02 	lds	r31, 0x028A	; 0x80028a <lcd1_PORT+0x1>
    27e4:	90 81       	ld	r25, Z
    27e6:	90 68       	ori	r25, 0x80	; 128
    27e8:	90 83       	st	Z, r25
    27ea:	07 c0       	rjmp	.+14     	; 0x27fa <LCD1_write+0x6e>
    27ec:	e0 91 89 02 	lds	r30, 0x0289	; 0x800289 <lcd1_PORT>
    27f0:	f0 91 8a 02 	lds	r31, 0x028A	; 0x80028a <lcd1_PORT+0x1>
    27f4:	90 81       	ld	r25, Z
    27f6:	9f 77       	andi	r25, 0x7F	; 127
    27f8:	90 83       	st	Z, r25
    27fa:	86 ff       	sbrs	r24, 6
    27fc:	08 c0       	rjmp	.+16     	; 0x280e <LCD1_write+0x82>
    27fe:	e0 91 89 02 	lds	r30, 0x0289	; 0x800289 <lcd1_PORT>
    2802:	f0 91 8a 02 	lds	r31, 0x028A	; 0x80028a <lcd1_PORT+0x1>
    2806:	90 81       	ld	r25, Z
    2808:	90 64       	ori	r25, 0x40	; 64
    280a:	90 83       	st	Z, r25
    280c:	07 c0       	rjmp	.+14     	; 0x281c <LCD1_write+0x90>
    280e:	e0 91 89 02 	lds	r30, 0x0289	; 0x800289 <lcd1_PORT>
    2812:	f0 91 8a 02 	lds	r31, 0x028A	; 0x80028a <lcd1_PORT+0x1>
    2816:	90 81       	ld	r25, Z
    2818:	9f 7b       	andi	r25, 0xBF	; 191
    281a:	90 83       	st	Z, r25
    281c:	85 ff       	sbrs	r24, 5
    281e:	08 c0       	rjmp	.+16     	; 0x2830 <LCD1_write+0xa4>
    2820:	e0 91 89 02 	lds	r30, 0x0289	; 0x800289 <lcd1_PORT>
    2824:	f0 91 8a 02 	lds	r31, 0x028A	; 0x80028a <lcd1_PORT+0x1>
    2828:	90 81       	ld	r25, Z
    282a:	90 62       	ori	r25, 0x20	; 32
    282c:	90 83       	st	Z, r25
    282e:	07 c0       	rjmp	.+14     	; 0x283e <LCD1_write+0xb2>
    2830:	e0 91 89 02 	lds	r30, 0x0289	; 0x800289 <lcd1_PORT>
    2834:	f0 91 8a 02 	lds	r31, 0x028A	; 0x80028a <lcd1_PORT+0x1>
    2838:	90 81       	ld	r25, Z
    283a:	9f 7d       	andi	r25, 0xDF	; 223
    283c:	90 83       	st	Z, r25
    283e:	84 ff       	sbrs	r24, 4
    2840:	08 c0       	rjmp	.+16     	; 0x2852 <LCD1_write+0xc6>
    2842:	e0 91 89 02 	lds	r30, 0x0289	; 0x800289 <lcd1_PORT>
    2846:	f0 91 8a 02 	lds	r31, 0x028A	; 0x80028a <lcd1_PORT+0x1>
    284a:	90 81       	ld	r25, Z
    284c:	90 61       	ori	r25, 0x10	; 16
    284e:	90 83       	st	Z, r25
    2850:	07 c0       	rjmp	.+14     	; 0x2860 <LCD1_write+0xd4>
    2852:	e0 91 89 02 	lds	r30, 0x0289	; 0x800289 <lcd1_PORT>
    2856:	f0 91 8a 02 	lds	r31, 0x028A	; 0x80028a <lcd1_PORT+0x1>
    285a:	90 81       	ld	r25, Z
    285c:	9f 7e       	andi	r25, 0xEF	; 239
    285e:	90 83       	st	Z, r25
    2860:	e0 91 89 02 	lds	r30, 0x0289	; 0x800289 <lcd1_PORT>
    2864:	f0 91 8a 02 	lds	r31, 0x028A	; 0x80028a <lcd1_PORT+0x1>
    2868:	90 81       	ld	r25, Z
    286a:	9b 7f       	andi	r25, 0xFB	; 251
    286c:	90 83       	st	Z, r25
    286e:	e0 91 89 02 	lds	r30, 0x0289	; 0x800289 <lcd1_PORT>
    2872:	f0 91 8a 02 	lds	r31, 0x028A	; 0x80028a <lcd1_PORT+0x1>
    2876:	90 81       	ld	r25, Z
    2878:	94 60       	ori	r25, 0x04	; 4
    287a:	90 83       	st	Z, r25
    287c:	83 ff       	sbrs	r24, 3
    287e:	08 c0       	rjmp	.+16     	; 0x2890 <LCD1_write+0x104>
    2880:	e0 91 89 02 	lds	r30, 0x0289	; 0x800289 <lcd1_PORT>
    2884:	f0 91 8a 02 	lds	r31, 0x028A	; 0x80028a <lcd1_PORT+0x1>
    2888:	90 81       	ld	r25, Z
    288a:	90 68       	ori	r25, 0x80	; 128
    288c:	90 83       	st	Z, r25
    288e:	07 c0       	rjmp	.+14     	; 0x289e <LCD1_write+0x112>
    2890:	e0 91 89 02 	lds	r30, 0x0289	; 0x800289 <lcd1_PORT>
    2894:	f0 91 8a 02 	lds	r31, 0x028A	; 0x80028a <lcd1_PORT+0x1>
    2898:	90 81       	ld	r25, Z
    289a:	9f 77       	andi	r25, 0x7F	; 127
    289c:	90 83       	st	Z, r25
    289e:	82 ff       	sbrs	r24, 2
    28a0:	08 c0       	rjmp	.+16     	; 0x28b2 <LCD1_write+0x126>
    28a2:	e0 91 89 02 	lds	r30, 0x0289	; 0x800289 <lcd1_PORT>
    28a6:	f0 91 8a 02 	lds	r31, 0x028A	; 0x80028a <lcd1_PORT+0x1>
    28aa:	90 81       	ld	r25, Z
    28ac:	90 64       	ori	r25, 0x40	; 64
    28ae:	90 83       	st	Z, r25
    28b0:	07 c0       	rjmp	.+14     	; 0x28c0 <LCD1_write+0x134>
    28b2:	e0 91 89 02 	lds	r30, 0x0289	; 0x800289 <lcd1_PORT>
    28b6:	f0 91 8a 02 	lds	r31, 0x028A	; 0x80028a <lcd1_PORT+0x1>
    28ba:	90 81       	ld	r25, Z
    28bc:	9f 7b       	andi	r25, 0xBF	; 191
    28be:	90 83       	st	Z, r25
    28c0:	81 ff       	sbrs	r24, 1
    28c2:	08 c0       	rjmp	.+16     	; 0x28d4 <LCD1_write+0x148>
    28c4:	e0 91 89 02 	lds	r30, 0x0289	; 0x800289 <lcd1_PORT>
    28c8:	f0 91 8a 02 	lds	r31, 0x028A	; 0x80028a <lcd1_PORT+0x1>
    28cc:	90 81       	ld	r25, Z
    28ce:	90 62       	ori	r25, 0x20	; 32
    28d0:	90 83       	st	Z, r25
    28d2:	07 c0       	rjmp	.+14     	; 0x28e2 <LCD1_write+0x156>
    28d4:	e0 91 89 02 	lds	r30, 0x0289	; 0x800289 <lcd1_PORT>
    28d8:	f0 91 8a 02 	lds	r31, 0x028A	; 0x80028a <lcd1_PORT+0x1>
    28dc:	90 81       	ld	r25, Z
    28de:	9f 7d       	andi	r25, 0xDF	; 223
    28e0:	90 83       	st	Z, r25
    28e2:	80 ff       	sbrs	r24, 0
    28e4:	08 c0       	rjmp	.+16     	; 0x28f6 <LCD1_write+0x16a>
    28e6:	e0 91 89 02 	lds	r30, 0x0289	; 0x800289 <lcd1_PORT>
    28ea:	f0 91 8a 02 	lds	r31, 0x028A	; 0x80028a <lcd1_PORT+0x1>
    28ee:	80 81       	ld	r24, Z
    28f0:	80 61       	ori	r24, 0x10	; 16
    28f2:	80 83       	st	Z, r24
    28f4:	07 c0       	rjmp	.+14     	; 0x2904 <LCD1_write+0x178>
    28f6:	e0 91 89 02 	lds	r30, 0x0289	; 0x800289 <lcd1_PORT>
    28fa:	f0 91 8a 02 	lds	r31, 0x028A	; 0x80028a <lcd1_PORT+0x1>
    28fe:	80 81       	ld	r24, Z
    2900:	8f 7e       	andi	r24, 0xEF	; 239
    2902:	80 83       	st	Z, r24
    2904:	e0 91 89 02 	lds	r30, 0x0289	; 0x800289 <lcd1_PORT>
    2908:	f0 91 8a 02 	lds	r31, 0x028A	; 0x80028a <lcd1_PORT+0x1>
    290c:	80 81       	ld	r24, Z
    290e:	8b 7f       	andi	r24, 0xFB	; 251
    2910:	80 83       	st	Z, r24
    2912:	08 95       	ret

00002914 <LCD1_read>:
    2914:	e0 91 7f 02 	lds	r30, 0x027F	; 0x80027f <lcd1_DDR>
    2918:	f0 91 80 02 	lds	r31, 0x0280	; 0x800280 <lcd1_DDR+0x1>
    291c:	20 81       	ld	r18, Z
    291e:	2f 70       	andi	r18, 0x0F	; 15
    2920:	20 83       	st	Z, r18
    2922:	e0 91 89 02 	lds	r30, 0x0289	; 0x800289 <lcd1_PORT>
    2926:	f0 91 8a 02 	lds	r31, 0x028A	; 0x80028a <lcd1_PORT+0x1>
    292a:	20 81       	ld	r18, Z
    292c:	20 6f       	ori	r18, 0xF0	; 240
    292e:	20 83       	st	Z, r18
    2930:	e0 91 89 02 	lds	r30, 0x0289	; 0x800289 <lcd1_PORT>
    2934:	f0 91 8a 02 	lds	r31, 0x028A	; 0x80028a <lcd1_PORT+0x1>
    2938:	20 81       	ld	r18, Z
    293a:	22 60       	ori	r18, 0x02	; 2
    293c:	20 83       	st	Z, r18
    293e:	89 2b       	or	r24, r25
    2940:	41 f0       	breq	.+16     	; 0x2952 <LCD1_read+0x3e>
    2942:	e0 91 89 02 	lds	r30, 0x0289	; 0x800289 <lcd1_PORT>
    2946:	f0 91 8a 02 	lds	r31, 0x028A	; 0x80028a <lcd1_PORT+0x1>
    294a:	80 81       	ld	r24, Z
    294c:	81 60       	ori	r24, 0x01	; 1
    294e:	80 83       	st	Z, r24
    2950:	07 c0       	rjmp	.+14     	; 0x2960 <LCD1_read+0x4c>
    2952:	e0 91 89 02 	lds	r30, 0x0289	; 0x800289 <lcd1_PORT>
    2956:	f0 91 8a 02 	lds	r31, 0x028A	; 0x80028a <lcd1_PORT+0x1>
    295a:	80 81       	ld	r24, Z
    295c:	8e 7f       	andi	r24, 0xFE	; 254
    295e:	80 83       	st	Z, r24
    2960:	e0 91 89 02 	lds	r30, 0x0289	; 0x800289 <lcd1_PORT>
    2964:	f0 91 8a 02 	lds	r31, 0x028A	; 0x80028a <lcd1_PORT+0x1>
    2968:	80 81       	ld	r24, Z
    296a:	84 60       	ori	r24, 0x04	; 4
    296c:	80 83       	st	Z, r24
    296e:	e0 91 82 02 	lds	r30, 0x0282	; 0x800282 <lcd1_PIN>
    2972:	f0 91 83 02 	lds	r31, 0x0283	; 0x800283 <lcd1_PIN+0x1>
    2976:	80 81       	ld	r24, Z
    2978:	88 23       	and	r24, r24
    297a:	14 f0       	brlt	.+4      	; 0x2980 <LCD1_read+0x6c>
    297c:	80 e0       	ldi	r24, 0x00	; 0
    297e:	01 c0       	rjmp	.+2      	; 0x2982 <LCD1_read+0x6e>
    2980:	80 e8       	ldi	r24, 0x80	; 128
    2982:	90 81       	ld	r25, Z
    2984:	96 ff       	sbrs	r25, 6
    2986:	02 c0       	rjmp	.+4      	; 0x298c <LCD1_read+0x78>
    2988:	80 64       	ori	r24, 0x40	; 64
    298a:	01 c0       	rjmp	.+2      	; 0x298e <LCD1_read+0x7a>
    298c:	8f 7b       	andi	r24, 0xBF	; 191
    298e:	90 81       	ld	r25, Z
    2990:	95 ff       	sbrs	r25, 5
    2992:	02 c0       	rjmp	.+4      	; 0x2998 <LCD1_read+0x84>
    2994:	80 62       	ori	r24, 0x20	; 32
    2996:	01 c0       	rjmp	.+2      	; 0x299a <LCD1_read+0x86>
    2998:	8f 7d       	andi	r24, 0xDF	; 223
    299a:	90 81       	ld	r25, Z
    299c:	94 ff       	sbrs	r25, 4
    299e:	02 c0       	rjmp	.+4      	; 0x29a4 <LCD1_read+0x90>
    29a0:	80 61       	ori	r24, 0x10	; 16
    29a2:	01 c0       	rjmp	.+2      	; 0x29a6 <LCD1_read+0x92>
    29a4:	8f 7e       	andi	r24, 0xEF	; 239
    29a6:	e0 91 89 02 	lds	r30, 0x0289	; 0x800289 <lcd1_PORT>
    29aa:	f0 91 8a 02 	lds	r31, 0x028A	; 0x80028a <lcd1_PORT+0x1>
    29ae:	90 81       	ld	r25, Z
    29b0:	9b 7f       	andi	r25, 0xFB	; 251
    29b2:	90 83       	st	Z, r25
    29b4:	e0 91 89 02 	lds	r30, 0x0289	; 0x800289 <lcd1_PORT>
    29b8:	f0 91 8a 02 	lds	r31, 0x028A	; 0x80028a <lcd1_PORT+0x1>
    29bc:	90 81       	ld	r25, Z
    29be:	94 60       	ori	r25, 0x04	; 4
    29c0:	90 83       	st	Z, r25
    29c2:	e0 91 82 02 	lds	r30, 0x0282	; 0x800282 <lcd1_PIN>
    29c6:	f0 91 83 02 	lds	r31, 0x0283	; 0x800283 <lcd1_PIN+0x1>
    29ca:	90 81       	ld	r25, Z
    29cc:	99 23       	and	r25, r25
    29ce:	14 f4       	brge	.+4      	; 0x29d4 <LCD1_read+0xc0>
    29d0:	88 60       	ori	r24, 0x08	; 8
    29d2:	01 c0       	rjmp	.+2      	; 0x29d6 <LCD1_read+0xc2>
    29d4:	87 7f       	andi	r24, 0xF7	; 247
    29d6:	90 81       	ld	r25, Z
    29d8:	96 ff       	sbrs	r25, 6
    29da:	02 c0       	rjmp	.+4      	; 0x29e0 <LCD1_read+0xcc>
    29dc:	84 60       	ori	r24, 0x04	; 4
    29de:	01 c0       	rjmp	.+2      	; 0x29e2 <LCD1_read+0xce>
    29e0:	8b 7f       	andi	r24, 0xFB	; 251
    29e2:	90 81       	ld	r25, Z
    29e4:	95 ff       	sbrs	r25, 5
    29e6:	02 c0       	rjmp	.+4      	; 0x29ec <LCD1_read+0xd8>
    29e8:	82 60       	ori	r24, 0x02	; 2
    29ea:	01 c0       	rjmp	.+2      	; 0x29ee <LCD1_read+0xda>
    29ec:	8d 7f       	andi	r24, 0xFD	; 253
    29ee:	90 81       	ld	r25, Z
    29f0:	94 ff       	sbrs	r25, 4
    29f2:	02 c0       	rjmp	.+4      	; 0x29f8 <LCD1_read+0xe4>
    29f4:	81 60       	ori	r24, 0x01	; 1
    29f6:	01 c0       	rjmp	.+2      	; 0x29fa <LCD1_read+0xe6>
    29f8:	8e 7f       	andi	r24, 0xFE	; 254
    29fa:	e0 91 89 02 	lds	r30, 0x0289	; 0x800289 <lcd1_PORT>
    29fe:	f0 91 8a 02 	lds	r31, 0x028A	; 0x80028a <lcd1_PORT+0x1>
    2a02:	90 81       	ld	r25, Z
    2a04:	9b 7f       	andi	r25, 0xFB	; 251
    2a06:	90 83       	st	Z, r25
    2a08:	08 95       	ret

00002a0a <LCD1_BF>:
    2a0a:	cf 93       	push	r28
    2a0c:	df 93       	push	r29
    2a0e:	80 e0       	ldi	r24, 0x00	; 0
    2a10:	90 e0       	ldi	r25, 0x00	; 0
    2a12:	80 df       	rcall	.-256    	; 0x2914 <LCD1_read>
    2a14:	cb e0       	ldi	r28, 0x0B	; 11
    2a16:	d0 e0       	ldi	r29, 0x00	; 0
    2a18:	05 c0       	rjmp	.+10     	; 0x2a24 <LCD1_BF+0x1a>
    2a1a:	80 e0       	ldi	r24, 0x00	; 0
    2a1c:	90 e0       	ldi	r25, 0x00	; 0
    2a1e:	7a df       	rcall	.-268    	; 0x2914 <LCD1_read>
    2a20:	21 97       	sbiw	r28, 0x01	; 1
    2a22:	11 f0       	breq	.+4      	; 0x2a28 <LCD1_BF+0x1e>
    2a24:	88 23       	and	r24, r24
    2a26:	cc f3       	brlt	.-14     	; 0x2a1a <LCD1_BF+0x10>
    2a28:	df 91       	pop	r29
    2a2a:	cf 91       	pop	r28
    2a2c:	08 95       	ret

00002a2e <LCD1_putch>:
    2a2e:	61 e0       	ldi	r22, 0x01	; 1
    2a30:	70 e0       	ldi	r23, 0x00	; 0
    2a32:	ac de       	rcall	.-680    	; 0x278c <LCD1_write>
    2a34:	ea cf       	rjmp	.-44     	; 0x2a0a <LCD1_BF>
    2a36:	08 95       	ret

00002a38 <LCD1_getch>:
    2a38:	cf 93       	push	r28
    2a3a:	81 e0       	ldi	r24, 0x01	; 1
    2a3c:	90 e0       	ldi	r25, 0x00	; 0
    2a3e:	6a df       	rcall	.-300    	; 0x2914 <LCD1_read>
    2a40:	c8 2f       	mov	r28, r24
    2a42:	e3 df       	rcall	.-58     	; 0x2a0a <LCD1_BF>
    2a44:	8c 2f       	mov	r24, r28
    2a46:	cf 91       	pop	r28
    2a48:	08 95       	ret

00002a4a <LCD1_string>:
    2a4a:	cf 93       	push	r28
    2a4c:	df 93       	push	r29
    2a4e:	ec 01       	movw	r28, r24
    2a50:	88 81       	ld	r24, Y
    2a52:	88 23       	and	r24, r24
    2a54:	41 f0       	breq	.+16     	; 0x2a66 <LCD1_string+0x1c>
    2a56:	21 96       	adiw	r28, 0x01	; 1
    2a58:	61 e0       	ldi	r22, 0x01	; 1
    2a5a:	70 e0       	ldi	r23, 0x00	; 0
    2a5c:	97 de       	rcall	.-722    	; 0x278c <LCD1_write>
    2a5e:	d5 df       	rcall	.-86     	; 0x2a0a <LCD1_BF>
    2a60:	89 91       	ld	r24, Y+
    2a62:	81 11       	cpse	r24, r1
    2a64:	f9 cf       	rjmp	.-14     	; 0x2a58 <LCD1_string+0xe>
    2a66:	df 91       	pop	r29
    2a68:	cf 91       	pop	r28
    2a6a:	08 95       	ret

00002a6c <LCD1_string_size>:
    2a6c:	0f 93       	push	r16
    2a6e:	1f 93       	push	r17
    2a70:	cf 93       	push	r28
    2a72:	df 93       	push	r29
    2a74:	fc 01       	movw	r30, r24
    2a76:	d6 2f       	mov	r29, r22
    2a78:	80 81       	ld	r24, Z
    2a7a:	88 23       	and	r24, r24
    2a7c:	51 f0       	breq	.+20     	; 0x2a92 <LCD1_string_size+0x26>
    2a7e:	8f 01       	movw	r16, r30
    2a80:	0f 5f       	subi	r16, 0xFF	; 255
    2a82:	1f 4f       	sbci	r17, 0xFF	; 255
    2a84:	61 11       	cpse	r22, r1
    2a86:	09 c0       	rjmp	.+18     	; 0x2a9a <LCD1_string_size+0x2e>
    2a88:	1b c0       	rjmp	.+54     	; 0x2ac0 <LCD1_string_size+0x54>
    2a8a:	cf 5f       	subi	r28, 0xFF	; 255
    2a8c:	dc 17       	cp	r29, r28
    2a8e:	30 f4       	brcc	.+12     	; 0x2a9c <LCD1_string_size+0x30>
    2a90:	01 c0       	rjmp	.+2      	; 0x2a94 <LCD1_string_size+0x28>
    2a92:	c0 e0       	ldi	r28, 0x00	; 0
    2a94:	cd 17       	cp	r28, r29
    2a96:	60 f0       	brcs	.+24     	; 0x2ab0 <LCD1_string_size+0x44>
    2a98:	13 c0       	rjmp	.+38     	; 0x2ac0 <LCD1_string_size+0x54>
    2a9a:	c1 e0       	ldi	r28, 0x01	; 1
    2a9c:	61 e0       	ldi	r22, 0x01	; 1
    2a9e:	70 e0       	ldi	r23, 0x00	; 0
    2aa0:	75 de       	rcall	.-790    	; 0x278c <LCD1_write>
    2aa2:	b3 df       	rcall	.-154    	; 0x2a0a <LCD1_BF>
    2aa4:	f8 01       	movw	r30, r16
    2aa6:	81 91       	ld	r24, Z+
    2aa8:	8f 01       	movw	r16, r30
    2aaa:	81 11       	cpse	r24, r1
    2aac:	ee cf       	rjmp	.-36     	; 0x2a8a <LCD1_string_size+0x1e>
    2aae:	f2 cf       	rjmp	.-28     	; 0x2a94 <LCD1_string_size+0x28>
    2ab0:	cf 5f       	subi	r28, 0xFF	; 255
    2ab2:	61 e0       	ldi	r22, 0x01	; 1
    2ab4:	70 e0       	ldi	r23, 0x00	; 0
    2ab6:	80 e2       	ldi	r24, 0x20	; 32
    2ab8:	69 de       	rcall	.-814    	; 0x278c <LCD1_write>
    2aba:	a7 df       	rcall	.-178    	; 0x2a0a <LCD1_BF>
    2abc:	cd 17       	cp	r28, r29
    2abe:	c0 f3       	brcs	.-16     	; 0x2ab0 <LCD1_string_size+0x44>
    2ac0:	df 91       	pop	r29
    2ac2:	cf 91       	pop	r28
    2ac4:	1f 91       	pop	r17
    2ac6:	0f 91       	pop	r16
    2ac8:	08 95       	ret

00002aca <LCD1_hspace>:
    2aca:	cf 93       	push	r28
    2acc:	c8 2f       	mov	r28, r24
    2ace:	88 23       	and	r24, r24
    2ad0:	39 f0       	breq	.+14     	; 0x2ae0 <LCD1_hspace+0x16>
    2ad2:	61 e0       	ldi	r22, 0x01	; 1
    2ad4:	70 e0       	ldi	r23, 0x00	; 0
    2ad6:	80 e2       	ldi	r24, 0x20	; 32
    2ad8:	59 de       	rcall	.-846    	; 0x278c <LCD1_write>
    2ada:	97 df       	rcall	.-210    	; 0x2a0a <LCD1_BF>
    2adc:	c1 50       	subi	r28, 0x01	; 1
    2ade:	c9 f7       	brne	.-14     	; 0x2ad2 <LCD1_hspace+0x8>
    2ae0:	cf 91       	pop	r28
    2ae2:	08 95       	ret

00002ae4 <LCD1_gotoxy>:
    2ae4:	26 2f       	mov	r18, r22
    2ae6:	81 30       	cpi	r24, 0x01	; 1
    2ae8:	91 05       	cpc	r25, r1
    2aea:	71 f0       	breq	.+28     	; 0x2b08 <LCD1_gotoxy+0x24>
    2aec:	30 f0       	brcs	.+12     	; 0x2afa <LCD1_gotoxy+0x16>
    2aee:	82 30       	cpi	r24, 0x02	; 2
    2af0:	91 05       	cpc	r25, r1
    2af2:	89 f0       	breq	.+34     	; 0x2b16 <LCD1_gotoxy+0x32>
    2af4:	03 97       	sbiw	r24, 0x03	; 3
    2af6:	b1 f0       	breq	.+44     	; 0x2b24 <LCD1_gotoxy+0x40>
    2af8:	08 95       	ret
    2afa:	60 e0       	ldi	r22, 0x00	; 0
    2afc:	70 e0       	ldi	r23, 0x00	; 0
    2afe:	80 e8       	ldi	r24, 0x80	; 128
    2b00:	82 0f       	add	r24, r18
    2b02:	44 de       	rcall	.-888    	; 0x278c <LCD1_write>
    2b04:	82 cf       	rjmp	.-252    	; 0x2a0a <LCD1_BF>
    2b06:	08 95       	ret
    2b08:	60 e0       	ldi	r22, 0x00	; 0
    2b0a:	70 e0       	ldi	r23, 0x00	; 0
    2b0c:	80 ec       	ldi	r24, 0xC0	; 192
    2b0e:	82 0f       	add	r24, r18
    2b10:	3d de       	rcall	.-902    	; 0x278c <LCD1_write>
    2b12:	7b cf       	rjmp	.-266    	; 0x2a0a <LCD1_BF>
    2b14:	08 95       	ret
    2b16:	60 e0       	ldi	r22, 0x00	; 0
    2b18:	70 e0       	ldi	r23, 0x00	; 0
    2b1a:	84 e9       	ldi	r24, 0x94	; 148
    2b1c:	82 0f       	add	r24, r18
    2b1e:	36 de       	rcall	.-916    	; 0x278c <LCD1_write>
    2b20:	74 cf       	rjmp	.-280    	; 0x2a0a <LCD1_BF>
    2b22:	08 95       	ret
    2b24:	60 e0       	ldi	r22, 0x00	; 0
    2b26:	70 e0       	ldi	r23, 0x00	; 0
    2b28:	84 ed       	ldi	r24, 0xD4	; 212
    2b2a:	82 0f       	add	r24, r18
    2b2c:	2f de       	rcall	.-930    	; 0x278c <LCD1_write>
    2b2e:	6d cf       	rjmp	.-294    	; 0x2a0a <LCD1_BF>
    2b30:	08 95       	ret

00002b32 <LCD1_clear>:
    2b32:	60 e0       	ldi	r22, 0x00	; 0
    2b34:	70 e0       	ldi	r23, 0x00	; 0
    2b36:	81 e0       	ldi	r24, 0x01	; 1
    2b38:	29 de       	rcall	.-942    	; 0x278c <LCD1_write>
    2b3a:	87 ee       	ldi	r24, 0xE7	; 231
    2b3c:	97 e1       	ldi	r25, 0x17	; 23
    2b3e:	01 97       	sbiw	r24, 0x01	; 1
    2b40:	f1 f7       	brne	.-4      	; 0x2b3e <LCD1_clear+0xc>
    2b42:	00 c0       	rjmp	.+0      	; 0x2b44 <LCD1_clear+0x12>
    2b44:	00 00       	nop
    2b46:	08 95       	ret

00002b48 <LCD1_inic>:
	return lcd1;
}
void LCD1_inic(void)
{
	//LCD INIC
	*lcd1_DDR=(1<<RS)|(1<<RW)|(1<<EN)|(0<<NC);
    2b48:	e0 91 7f 02 	lds	r30, 0x027F	; 0x80027f <lcd1_DDR>
    2b4c:	f0 91 80 02 	lds	r31, 0x0280	; 0x800280 <lcd1_DDR+0x1>
    2b50:	87 e0       	ldi	r24, 0x07	; 7
    2b52:	80 83       	st	Z, r24
	*lcd1_PORT=(1<<NC);
    2b54:	e0 91 89 02 	lds	r30, 0x0289	; 0x800289 <lcd1_PORT>
    2b58:	f0 91 8a 02 	lds	r31, 0x028A	; 0x80028a <lcd1_PORT+0x1>
    2b5c:	88 e0       	ldi	r24, 0x08	; 8
    2b5e:	80 83       	st	Z, r24
	#else
		//round up by default
		__ticks_dc = (uint32_t)(ceil(fabs(__tmp)));
	#endif

	__builtin_avr_delay_cycles(__ticks_dc);
    2b60:	2f ef       	ldi	r18, 0xFF	; 255
    2b62:	83 ef       	ldi	r24, 0xF3	; 243
    2b64:	91 e0       	ldi	r25, 0x01	; 1
    2b66:	21 50       	subi	r18, 0x01	; 1
    2b68:	80 40       	sbci	r24, 0x00	; 0
    2b6a:	90 40       	sbci	r25, 0x00	; 0
    2b6c:	e1 f7       	brne	.-8      	; 0x2b66 <LCD1_inic+0x1e>
    2b6e:	00 c0       	rjmp	.+0      	; 0x2b70 <LCD1_inic+0x28>
    2b70:	00 00       	nop
	/***INICIALIZACAO LCD**datasheet*/
	_delay_ms(40);
	LCD1_write(0x33,INST); //function set
    2b72:	60 e0       	ldi	r22, 0x00	; 0
    2b74:	70 e0       	ldi	r23, 0x00	; 0
    2b76:	83 e3       	ldi	r24, 0x33	; 51
    2b78:	09 de       	rcall	.-1006   	; 0x278c <LCD1_write>
	#else
		//round up by default
		__ticks_dc = (uint32_t)(ceil(fabs(__tmp)));
	#endif

	__builtin_avr_delay_cycles(__ticks_dc);
    2b7a:	20 ed       	ldi	r18, 0xD0	; 208
    2b7c:	2a 95       	dec	r18
    2b7e:	f1 f7       	brne	.-4      	; 0x2b7c <LCD1_inic+0x34>
	_delay_us(39);
	LCD1_write(0x33,INST); //function set
    2b80:	60 e0       	ldi	r22, 0x00	; 0
    2b82:	70 e0       	ldi	r23, 0x00	; 0
    2b84:	83 e3       	ldi	r24, 0x33	; 51
    2b86:	02 de       	rcall	.-1020   	; 0x278c <LCD1_write>
    2b88:	80 ed       	ldi	r24, 0xD0	; 208
    2b8a:	8a 95       	dec	r24
    2b8c:	f1 f7       	brne	.-4      	; 0x2b8a <LCD1_inic+0x42>
	_delay_us(39);
	LCD1_write(0x2B,INST); //function set
    2b8e:	60 e0       	ldi	r22, 0x00	; 0
    2b90:	70 e0       	ldi	r23, 0x00	; 0
    2b92:	8b e2       	ldi	r24, 0x2B	; 43
    2b94:	fb dd       	rcall	.-1034   	; 0x278c <LCD1_write>
    2b96:	95 ec       	ldi	r25, 0xC5	; 197
    2b98:	9a 95       	dec	r25
    2b9a:	f1 f7       	brne	.-4      	; 0x2b98 <LCD1_inic+0x50>
    2b9c:	00 00       	nop
	_delay_us(37);
	LCD1_write(0x0C,INST);// display on/off control
    2b9e:	60 e0       	ldi	r22, 0x00	; 0
    2ba0:	70 e0       	ldi	r23, 0x00	; 0
    2ba2:	8c e0       	ldi	r24, 0x0C	; 12
    2ba4:	f3 dd       	rcall	.-1050   	; 0x278c <LCD1_write>
    2ba6:	25 ec       	ldi	r18, 0xC5	; 197
    2ba8:	2a 95       	dec	r18
    2baa:	f1 f7       	brne	.-4      	; 0x2ba8 <LCD1_inic+0x60>
	_delay_us(37);
	LCD1_write(0x01,INST);// clear display
    2bac:	00 00       	nop
    2bae:	60 e0       	ldi	r22, 0x00	; 0
    2bb0:	70 e0       	ldi	r23, 0x00	; 0
    2bb2:	81 e0       	ldi	r24, 0x01	; 1
    2bb4:	eb dd       	rcall	.-1066   	; 0x278c <LCD1_write>
	#else
		//round up by default
		__ticks_dc = (uint32_t)(ceil(fabs(__tmp)));
	#endif

	__builtin_avr_delay_cycles(__ticks_dc);
    2bb6:	87 ee       	ldi	r24, 0xE7	; 231
    2bb8:	97 e1       	ldi	r25, 0x17	; 23
    2bba:	01 97       	sbiw	r24, 0x01	; 1
    2bbc:	f1 f7       	brne	.-4      	; 0x2bba <LCD1_inic+0x72>
    2bbe:	00 c0       	rjmp	.+0      	; 0x2bc0 <LCD1_inic+0x78>
	_delay_ms(1.53);
	LCD1_write(0x06,INST);// entry mode set (crazy settings)
    2bc0:	00 00       	nop
    2bc2:	60 e0       	ldi	r22, 0x00	; 0
    2bc4:	70 e0       	ldi	r23, 0x00	; 0
    2bc6:	86 e0       	ldi	r24, 0x06	; 6
    2bc8:	e1 dd       	rcall	.-1086   	; 0x278c <LCD1_write>
	#else
		//round up by default
		__ticks_dc = (uint32_t)(ceil(fabs(__tmp)));
	#endif

	__builtin_avr_delay_cycles(__ticks_dc);
    2bca:	95 ec       	ldi	r25, 0xC5	; 197
    2bcc:	9a 95       	dec	r25
    2bce:	f1 f7       	brne	.-4      	; 0x2bcc <LCD1_inic+0x84>
    2bd0:	00 00       	nop
    2bd2:	08 95       	ret

00002bd4 <LCD1enable>:
		LCD0_inic();
	lcd0_detect=tmp;
}
/*******************************************************************/
LCD1 LCD1enable(volatile uint8_t *ddr, volatile uint8_t *pin, volatile uint8_t *port)
{
    2bd4:	1f 93       	push	r17
    2bd6:	cf 93       	push	r28
    2bd8:	df 93       	push	r29
    2bda:	ec 01       	movw	r28, r24
	//LOCAL VARIABLES
	uint8_t tSREG;
	tSREG=SREG;
    2bdc:	1f b7       	in	r17, 0x3f	; 63
	SREG&=~(1<<GLOBAL_INTERRUPT_ENABLE);
    2bde:	8f b7       	in	r24, 0x3f	; 63
    2be0:	8f 77       	andi	r24, 0x7F	; 127
    2be2:	8f bf       	out	0x3f, r24	; 63
	//ALLOCAO MEMORIA PARA Estrutura
	LCD1 lcd1;
	//import parametros
	lcd1_DDR=ddr;
    2be4:	70 93 80 02 	sts	0x0280, r23	; 0x800280 <lcd1_DDR+0x1>
    2be8:	60 93 7f 02 	sts	0x027F, r22	; 0x80027f <lcd1_DDR>
	lcd1_PIN=pin;
    2bec:	50 93 83 02 	sts	0x0283, r21	; 0x800283 <lcd1_PIN+0x1>
    2bf0:	40 93 82 02 	sts	0x0282, r20	; 0x800282 <lcd1_PIN>
	lcd1_PORT=port;
    2bf4:	30 93 8a 02 	sts	0x028A, r19	; 0x80028a <lcd1_PORT+0x1>
    2bf8:	20 93 89 02 	sts	0x0289, r18	; 0x800289 <lcd1_PORT>
	//inic variables
	*lcd1_DDR=0x00;
    2bfc:	fb 01       	movw	r30, r22
    2bfe:	10 82       	st	Z, r1
	*lcd1_PORT=0xFF;
    2c00:	e0 91 89 02 	lds	r30, 0x0289	; 0x800289 <lcd1_PORT>
    2c04:	f0 91 8a 02 	lds	r31, 0x028A	; 0x80028a <lcd1_PORT+0x1>
    2c08:	8f ef       	ldi	r24, 0xFF	; 255
    2c0a:	80 83       	st	Z, r24
	lcd1_detect=*lcd1_PIN & (1<<NC);
    2c0c:	e0 91 82 02 	lds	r30, 0x0282	; 0x800282 <lcd1_PIN>
    2c10:	f0 91 83 02 	lds	r31, 0x0283	; 0x800283 <lcd1_PIN+0x1>
    2c14:	80 81       	ld	r24, Z
    2c16:	88 70       	andi	r24, 0x08	; 8
    2c18:	80 93 81 02 	sts	0x0281, r24	; 0x800281 <lcd1_detect>
	lcd1.hspace=LCD1_hspace;
	lcd1.clear=LCD1_clear;
	lcd1.gotoxy=LCD1_gotoxy;
	lcd1.reboot=LCD1_reboot;
	//LCD INIC
	LCD1_inic();
    2c1c:	95 df       	rcall	.-214    	; 0x2b48 <LCD1_inic>
	SREG=tSREG;
    2c1e:	1f bf       	out	0x3f, r17	; 63
	//
	return lcd1;
    2c20:	86 ec       	ldi	r24, 0xC6	; 198
    2c22:	93 e1       	ldi	r25, 0x13	; 19
    2c24:	99 83       	std	Y+1, r25	; 0x01
    2c26:	88 83       	st	Y, r24
    2c28:	8a e8       	ldi	r24, 0x8A	; 138
    2c2a:	94 e1       	ldi	r25, 0x14	; 20
    2c2c:	9b 83       	std	Y+3, r25	; 0x03
    2c2e:	8a 83       	std	Y+2, r24	; 0x02
    2c30:	85 e0       	ldi	r24, 0x05	; 5
    2c32:	95 e1       	ldi	r25, 0x15	; 21
    2c34:	9d 83       	std	Y+5, r25	; 0x05
    2c36:	8c 83       	std	Y+4, r24	; 0x04
    2c38:	87 e1       	ldi	r24, 0x17	; 23
    2c3a:	95 e1       	ldi	r25, 0x15	; 21
    2c3c:	9f 83       	std	Y+7, r25	; 0x07
    2c3e:	8e 83       	std	Y+6, r24	; 0x06
    2c40:	8c e1       	ldi	r24, 0x1C	; 28
    2c42:	95 e1       	ldi	r25, 0x15	; 21
    2c44:	99 87       	std	Y+9, r25	; 0x09
    2c46:	88 87       	std	Y+8, r24	; 0x08
    2c48:	85 e2       	ldi	r24, 0x25	; 37
    2c4a:	95 e1       	ldi	r25, 0x15	; 21
    2c4c:	9b 87       	std	Y+11, r25	; 0x0b
    2c4e:	8a 87       	std	Y+10, r24	; 0x0a
    2c50:	86 e3       	ldi	r24, 0x36	; 54
    2c52:	95 e1       	ldi	r25, 0x15	; 21
    2c54:	9d 87       	std	Y+13, r25	; 0x0d
    2c56:	8c 87       	std	Y+12, r24	; 0x0c
    2c58:	85 e6       	ldi	r24, 0x65	; 101
    2c5a:	95 e1       	ldi	r25, 0x15	; 21
    2c5c:	9f 87       	std	Y+15, r25	; 0x0f
    2c5e:	8e 87       	std	Y+14, r24	; 0x0e
    2c60:	89 e9       	ldi	r24, 0x99	; 153
    2c62:	95 e1       	ldi	r25, 0x15	; 21
    2c64:	99 8b       	std	Y+17, r25	; 0x11
    2c66:	88 8b       	std	Y+16, r24	; 0x10
    2c68:	82 e7       	ldi	r24, 0x72	; 114
    2c6a:	95 e1       	ldi	r25, 0x15	; 21
    2c6c:	9b 8b       	std	Y+19, r25	; 0x13
    2c6e:	8a 8b       	std	Y+18, r24	; 0x12
    2c70:	81 e4       	ldi	r24, 0x41	; 65
    2c72:	96 e1       	ldi	r25, 0x16	; 22
    2c74:	9d 8b       	std	Y+21, r25	; 0x15
    2c76:	8c 8b       	std	Y+20, r24	; 0x14
}
    2c78:	ce 01       	movw	r24, r28
    2c7a:	df 91       	pop	r29
    2c7c:	cf 91       	pop	r28
    2c7e:	1f 91       	pop	r17
    2c80:	08 95       	ret

00002c82 <LCD1_reboot>:
	*lcd1_PORT|=(1<<EN);
	LCD_ticks(num);
	*lcd1_PORT&=~(1<<EN);
}
void LCD1_reboot(void)
{
    2c82:	cf 93       	push	r28
	//low high detect pin NC
	uint8_t i;
	uint8_t tmp;
	tmp=*lcd1_PIN & (1<<NC);
    2c84:	e0 91 82 02 	lds	r30, 0x0282	; 0x800282 <lcd1_PIN>
    2c88:	f0 91 83 02 	lds	r31, 0x0283	; 0x800283 <lcd1_PIN+0x1>
    2c8c:	c0 81       	ld	r28, Z
    2c8e:	c8 70       	andi	r28, 0x08	; 8
	i=tmp^lcd1_detect;
    2c90:	80 91 81 02 	lds	r24, 0x0281	; 0x800281 <lcd1_detect>
    2c94:	8c 27       	eor	r24, r28
	i&=tmp;
	if(i)
    2c96:	8c 23       	and	r24, r28
    2c98:	09 f0       	breq	.+2      	; 0x2c9c <LCD1_reboot+0x1a>
		LCD1_inic();
    2c9a:	56 df       	rcall	.-340    	; 0x2b48 <LCD1_inic>
	lcd1_detect=tmp;
    2c9c:	c0 93 81 02 	sts	0x0281, r28	; 0x800281 <lcd1_detect>
}
    2ca0:	cf 91       	pop	r28
    2ca2:	08 95       	ret

00002ca4 <PORTINIT>:
** procedure and function definition
*/
void PORTINIT()
{
	//INPUT
	DDRF=0x00;
    2ca4:	10 92 61 00 	sts	0x0061, r1	; 0x800061 <__TEXT_REGION_LENGTH__+0x7e0061>
	PORTF=0x0F;
    2ca8:	8f e0       	ldi	r24, 0x0F	; 15
    2caa:	80 93 62 00 	sts	0x0062, r24	; 0x800062 <__TEXT_REGION_LENGTH__+0x7e0062>
	DDRE=0X00;
    2cae:	12 b8       	out	0x02, r1	; 2
	PORTE=0XFF;
    2cb0:	8f ef       	ldi	r24, 0xFF	; 255
    2cb2:	83 b9       	out	0x03, r24	; 3
	DDRD=0X00;
    2cb4:	11 ba       	out	0x11, r1	; 17
	PORTD=0XFF;
    2cb6:	82 bb       	out	0x12, r24	; 18
	//OUTPUT
	DDRC=0XFF;
    2cb8:	84 bb       	out	0x14, r24	; 20
	PORTC=0x00;
    2cba:	15 ba       	out	0x15, r1	; 21
	DDRB|=(1<<5) | (1<<6) | (1<<7);
    2cbc:	87 b3       	in	r24, 0x17	; 23
    2cbe:	80 6e       	ori	r24, 0xE0	; 224
    2cc0:	87 bb       	out	0x17, r24	; 23
	//UART0
	//DDRE=0X02;
	SREG|=(1<<GI);
    2cc2:	8f b7       	in	r24, 0x3f	; 63
    2cc4:	80 68       	ori	r24, 0x80	; 128
    2cc6:	8f bf       	out	0x3f, r24	; 63
    2cc8:	08 95       	ret

00002cca <main>:
/*
** procedure and function
*/
/*MAIN*/
int main(void)
{
    2cca:	cf 93       	push	r28
    2ccc:	df 93       	push	r29
    2cce:	cd b7       	in	r28, 0x3d	; 61
    2cd0:	de b7       	in	r29, 0x3e	; 62
    2cd2:	ce 5c       	subi	r28, 0xCE	; 206
    2cd4:	d1 09       	sbc	r29, r1
    2cd6:	0f b6       	in	r0, 0x3f	; 63
    2cd8:	f8 94       	cli
    2cda:	de bf       	out	0x3e, r29	; 62
    2cdc:	0f be       	out	0x3f, r0	; 63
    2cde:	cd bf       	out	0x3d, r28	; 61
	/***INICIALIZE OBJECTS***/
	FUNC function= FUNCenable();
    2ce0:	ce 01       	movw	r24, r28
    2ce2:	01 96       	adiw	r24, 0x01	; 1
    2ce4:	f6 da       	rcall	.-2580   	; 0x22d2 <FUNCenable>
    2ce6:	4b a0       	ldd	r4, Y+35	; 0x23
    2ce8:	5c a0       	ldd	r5, Y+36	; 0x24
    2cea:	2d ad       	ldd	r18, Y+61	; 0x3d
    2cec:	3e ad       	ldd	r19, Y+62	; 0x3e
    2cee:	c7 53       	subi	r28, 0x37	; 55
    2cf0:	df 4f       	sbci	r29, 0xFF	; 255
    2cf2:	39 83       	std	Y+1, r19	; 0x01
    2cf4:	28 83       	st	Y, r18
    2cf6:	c9 5c       	subi	r28, 0xC9	; 201
    2cf8:	d0 40       	sbci	r29, 0x00	; 0
    2cfa:	21 96       	adiw	r28, 0x01	; 1
    2cfc:	8e ad       	ldd	r24, Y+62	; 0x3e
    2cfe:	9f ad       	ldd	r25, Y+63	; 0x3f
    2d00:	21 97       	sbiw	r28, 0x01	; 1
    2d02:	c5 53       	subi	r28, 0x35	; 53
    2d04:	df 4f       	sbci	r29, 0xFF	; 255
    2d06:	99 83       	std	Y+1, r25	; 0x01
    2d08:	88 83       	st	Y, r24
    2d0a:	cb 5c       	subi	r28, 0xCB	; 203
    2d0c:	d0 40       	sbci	r29, 0x00	; 0
	LCD1 lcd0 = LCD1enable(&DDRA,&PINA,&PORTA);
    2d0e:	2b e3       	ldi	r18, 0x3B	; 59
    2d10:	30 e0       	ldi	r19, 0x00	; 0
    2d12:	49 e3       	ldi	r20, 0x39	; 57
    2d14:	50 e0       	ldi	r21, 0x00	; 0
    2d16:	6a e3       	ldi	r22, 0x3A	; 58
    2d18:	70 e0       	ldi	r23, 0x00	; 0
    2d1a:	ce 01       	movw	r24, r28
    2d1c:	85 5b       	subi	r24, 0xB5	; 181
    2d1e:	9f 4f       	sbci	r25, 0xFF	; 255
    2d20:	59 df       	rcall	.-334    	; 0x2bd4 <LCD1enable>
    2d22:	67 96       	adiw	r28, 0x17	; 23
    2d24:	6e ac       	ldd	r6, Y+62	; 0x3e
    2d26:	7f ac       	ldd	r7, Y+63	; 0x3f
    2d28:	67 97       	sbiw	r28, 0x17	; 23
    2d2a:	6f 96       	adiw	r28, 0x1f	; 31
    2d2c:	8e ac       	ldd	r8, Y+62	; 0x3e
    2d2e:	9f ac       	ldd	r9, Y+63	; 0x3f
    2d30:	6f 97       	sbiw	r28, 0x1f	; 31
	//LCD1 lcd1 = LCD1enable(&DDRC,&PINC,&PORTC);
	UART1 uart= UART1enable(103,8,1,NONE);//103 para 9600, 68 para 14400
    2d32:	00 e0       	ldi	r16, 0x00	; 0
    2d34:	10 e0       	ldi	r17, 0x00	; 0
    2d36:	21 e0       	ldi	r18, 0x01	; 1
    2d38:	30 e0       	ldi	r19, 0x00	; 0
    2d3a:	48 e0       	ldi	r20, 0x08	; 8
    2d3c:	50 e0       	ldi	r21, 0x00	; 0
    2d3e:	67 e6       	ldi	r22, 0x67	; 103
    2d40:	70 e0       	ldi	r23, 0x00	; 0
    2d42:	ce 01       	movw	r24, r28
    2d44:	8f 59       	subi	r24, 0x9F	; 159
    2d46:	9f 4f       	sbci	r25, 0xFF	; 255
    2d48:	0e 94 5e 09 	call	0x12bc	; 0x12bc <UART1enable>
	I2C i2c = I2Cenable(85, 1);
    2d4c:	41 e0       	ldi	r20, 0x01	; 1
    2d4e:	65 e5       	ldi	r22, 0x55	; 85
    2d50:	ce 01       	movw	r24, r28
    2d52:	8b 58       	subi	r24, 0x8B	; 139
    2d54:	9f 4f       	sbci	r25, 0xFF	; 255
    2d56:	0e 94 83 07 	call	0xf06	; 0xf06 <I2Cenable>
	ANALOG analog = ANALOGenable(1, 128, 3, 0, 4, 7);
    2d5a:	1f 92       	push	r1
    2d5c:	87 e0       	ldi	r24, 0x07	; 7
    2d5e:	8f 93       	push	r24
    2d60:	1f 92       	push	r1
    2d62:	84 e0       	ldi	r24, 0x04	; 4
    2d64:	8f 93       	push	r24
    2d66:	1f 92       	push	r1
    2d68:	1f 92       	push	r1
    2d6a:	1f 92       	push	r1
    2d6c:	83 e0       	ldi	r24, 0x03	; 3
    2d6e:	8f 93       	push	r24
    2d70:	80 e8       	ldi	r24, 0x80	; 128
    2d72:	8f 93       	push	r24
    2d74:	81 e0       	ldi	r24, 0x01	; 1
    2d76:	8f 93       	push	r24
    2d78:	0e 94 b6 00 	call	0x16c	; 0x16c <ANALOGenable>
    2d7c:	1c 01       	movw	r2, r24
	TIMER_COUNTER3 timer3 = TIMER_COUNTER3enable(0,1); // 0,1
    2d7e:	41 e0       	ldi	r20, 0x01	; 1
    2d80:	60 e0       	ldi	r22, 0x00	; 0
    2d82:	ce 01       	movw	r24, r28
    2d84:	81 58       	subi	r24, 0x81	; 129
    2d86:	9f 4f       	sbci	r25, 0xFF	; 255
    2d88:	0e 94 d9 05 	call	0xbb2	; 0xbb2 <TIMER_COUNTER3enable>
	TIMER_COUNTER1 timer1 = TIMER_COUNTER1enable(9,0);
    2d8c:	40 e0       	ldi	r20, 0x00	; 0
    2d8e:	69 e0       	ldi	r22, 0x09	; 9
    2d90:	ce 01       	movw	r24, r28
    2d92:	81 57       	subi	r24, 0x71	; 113
    2d94:	9f 4f       	sbci	r25, 0xFF	; 255
    2d96:	0e 94 e3 04 	call	0x9c6	; 0x9c6 <TIMER_COUNTER1enable>
	//SPI spi = SPIenable(SPI_MASTER_MODE, SPI_MSB_DATA_ORDER, 0, 8);
	//EEPROM eeprom = EEPROMenable();
	PORTINIT();
    2d9a:	84 df       	rcall	.-248    	; 0x2ca4 <PORTINIT>
	int6=INTERRUPTenable();
    2d9c:	0e 94 11 03 	call	0x622	; 0x622 <INTERRUPTenable>
    2da0:	20 93 8b 02 	sts	0x028B, r18	; 0x80028b <int6>
    2da4:	30 93 8c 02 	sts	0x028C, r19	; 0x80028c <int6+0x1>
    2da8:	40 93 8d 02 	sts	0x028D, r20	; 0x80028d <int6+0x2>
    2dac:	50 93 8e 02 	sts	0x028E, r21	; 0x80028e <int6+0x3>
    2db0:	60 93 8f 02 	sts	0x028F, r22	; 0x80028f <int6+0x4>
    2db4:	70 93 90 02 	sts	0x0290, r23	; 0x800290 <int6+0x5>
	relogio=CLOCKenable(0,0,0);
    2db8:	20 e0       	ldi	r18, 0x00	; 0
    2dba:	40 e0       	ldi	r20, 0x00	; 0
    2dbc:	60 e0       	ldi	r22, 0x00	; 0
    2dbe:	ce 01       	movw	r24, r28
    2dc0:	8b 54       	subi	r24, 0x4B	; 75
    2dc2:	9f 4f       	sbci	r25, 0xFF	; 255
    2dc4:	0e 94 27 0d 	call	0x1a4e	; 0x1a4e <CLOCKenable>
    2dc8:	84 e1       	ldi	r24, 0x14	; 20
    2dca:	fe 01       	movw	r30, r28
    2dcc:	eb 54       	subi	r30, 0x4B	; 75
    2dce:	ff 4f       	sbci	r31, 0xFF	; 255
    2dd0:	a3 e9       	ldi	r26, 0x93	; 147
    2dd2:	b2 e0       	ldi	r27, 0x02	; 2
    2dd4:	01 90       	ld	r0, Z+
    2dd6:	0d 92       	st	X+, r0
    2dd8:	8a 95       	dec	r24
    2dda:	e1 f7       	brne	.-8      	; 0x2dd4 <main+0x10a>
	struct keypadata keypadinput={"Ola",'0'};
	KEYPAD keypad = KEYPADenable(&DDRE,&PINE,&PORTE);
    2ddc:	43 e2       	ldi	r20, 0x23	; 35
    2dde:	50 e0       	ldi	r21, 0x00	; 0
    2de0:	61 e2       	ldi	r22, 0x21	; 33
    2de2:	70 e0       	ldi	r23, 0x00	; 0
    2de4:	82 e2       	ldi	r24, 0x22	; 34
    2de6:	90 e0       	ldi	r25, 0x00	; 0
    2de8:	7c dc       	rcall	.-1800   	; 0x26e2 <KEYPADenable>
    2dea:	c1 56       	subi	r28, 0x61	; 97
    2dec:	df 4f       	sbci	r29, 0xFF	; 255
    2dee:	28 83       	st	Y, r18
    2df0:	cf 59       	subi	r28, 0x9F	; 159
    2df2:	d0 40       	sbci	r29, 0x00	; 0
    2df4:	c0 56       	subi	r28, 0x60	; 96
    2df6:	df 4f       	sbci	r29, 0xFF	; 255
    2df8:	38 83       	st	Y, r19
    2dfa:	c0 5a       	subi	r28, 0xA0	; 160
    2dfc:	d0 40       	sbci	r29, 0x00	; 0
    2dfe:	cf 55       	subi	r28, 0x5F	; 95
    2e00:	df 4f       	sbci	r29, 0xFF	; 255
    2e02:	48 83       	st	Y, r20
    2e04:	c1 5a       	subi	r28, 0xA1	; 161
    2e06:	d0 40       	sbci	r29, 0x00	; 0
    2e08:	ce 55       	subi	r28, 0x5E	; 94
    2e0a:	df 4f       	sbci	r29, 0xFF	; 255
    2e0c:	58 83       	st	Y, r21
    2e0e:	c2 5a       	subi	r28, 0xA2	; 162
    2e10:	d0 40       	sbci	r29, 0x00	; 0
    2e12:	cd 55       	subi	r28, 0x5D	; 93
    2e14:	df 4f       	sbci	r29, 0xFF	; 255
    2e16:	68 83       	st	Y, r22
    2e18:	c3 5a       	subi	r28, 0xA3	; 163
    2e1a:	d0 40       	sbci	r29, 0x00	; 0
    2e1c:	cc 55       	subi	r28, 0x5C	; 92
    2e1e:	df 4f       	sbci	r29, 0xFF	; 255
    2e20:	78 83       	st	Y, r23
    2e22:	c4 5a       	subi	r28, 0xA4	; 164
    2e24:	d0 40       	sbci	r29, 0x00	; 0
	/******/
	//eeprom.update_block( "Sergio !!" , (uint8_t*)&NonVolatileString, 16);
	count=0;
    2e26:	10 92 a7 02 	sts	0x02A7, r1	; 0x8002a7 <count>
	char tmp[16];
	uart.putc('>');
    2e2a:	af 96       	adiw	r28, 0x2f	; 47
    2e2c:	ee ad       	ldd	r30, Y+62	; 0x3e
    2e2e:	ff ad       	ldd	r31, Y+63	; 0x3f
    2e30:	af 97       	sbiw	r28, 0x2f	; 47
    2e32:	8e e3       	ldi	r24, 0x3E	; 62
    2e34:	09 95       	icall
	uart.puts("SERGIO CODE");
    2e36:	e1 96       	adiw	r28, 0x31	; 49
    2e38:	ee ad       	ldd	r30, Y+62	; 0x3e
    2e3a:	ff ad       	ldd	r31, Y+63	; 0x3f
    2e3c:	e1 97       	sbiw	r28, 0x31	; 49
    2e3e:	86 e2       	ldi	r24, 0x26	; 38
    2e40:	91 e0       	ldi	r25, 0x01	; 1
    2e42:	09 95       	icall
	timer1.compoutmodeB(2);
    2e44:	cf 56       	subi	r28, 0x6F	; 111
    2e46:	df 4f       	sbci	r29, 0xFF	; 255
    2e48:	e8 81       	ld	r30, Y
    2e4a:	f9 81       	ldd	r31, Y+1	; 0x01
    2e4c:	c1 59       	subi	r28, 0x91	; 145
    2e4e:	d0 40       	sbci	r29, 0x00	; 0
    2e50:	82 e0       	ldi	r24, 0x02	; 2
    2e52:	09 95       	icall
	timer1.compareA(20000);
    2e54:	cb 56       	subi	r28, 0x6B	; 107
    2e56:	df 4f       	sbci	r29, 0xFF	; 255
    2e58:	e8 81       	ld	r30, Y
    2e5a:	f9 81       	ldd	r31, Y+1	; 0x01
    2e5c:	c5 59       	subi	r28, 0x95	; 149
    2e5e:	d0 40       	sbci	r29, 0x00	; 0
    2e60:	80 e2       	ldi	r24, 0x20	; 32
    2e62:	9e e4       	ldi	r25, 0x4E	; 78
    2e64:	09 95       	icall
	timer1.start(8);
    2e66:	c5 56       	subi	r28, 0x65	; 101
    2e68:	df 4f       	sbci	r29, 0xFF	; 255
    2e6a:	e8 81       	ld	r30, Y
    2e6c:	f9 81       	ldd	r31, Y+1	; 0x01
    2e6e:	cb 59       	subi	r28, 0x9B	; 155
    2e70:	d0 40       	sbci	r29, 0x00	; 0
    2e72:	88 e0       	ldi	r24, 0x08	; 8
    2e74:	90 e0       	ldi	r25, 0x00	; 0
    2e76:	09 95       	icall
	timer3.start(1);
    2e78:	c5 57       	subi	r28, 0x75	; 117
    2e7a:	df 4f       	sbci	r29, 0xFF	; 255
    2e7c:	e8 81       	ld	r30, Y
    2e7e:	f9 81       	ldd	r31, Y+1	; 0x01
    2e80:	cb 58       	subi	r28, 0x8B	; 139
    2e82:	d0 40       	sbci	r29, 0x00	; 0
    2e84:	81 e0       	ldi	r24, 0x01	; 1
    2e86:	90 e0       	ldi	r25, 0x00	; 0
    2e88:	09 95       	icall
	int6.set(6,1);
    2e8a:	e0 91 8b 02 	lds	r30, 0x028B	; 0x80028b <int6>
    2e8e:	f0 91 8c 02 	lds	r31, 0x028C	; 0x80028c <int6+0x1>
    2e92:	61 e0       	ldi	r22, 0x01	; 1
    2e94:	86 e0       	ldi	r24, 0x06	; 6
    2e96:	09 95       	icall
	lcd0.clear();
    2e98:	6d 96       	adiw	r28, 0x1d	; 29
    2e9a:	ee ad       	ldd	r30, Y+62	; 0x3e
    2e9c:	ff ad       	ldd	r31, Y+63	; 0x3f
    2e9e:	6d 97       	sbiw	r28, 0x1d	; 29
    2ea0:	09 95       	icall
    2ea2:	0f b6       	in	r0, 0x3f	; 63
    2ea4:	f8 94       	cli
    2ea6:	de bf       	out	0x3e, r29	; 62
    2ea8:	0f be       	out	0x3f, r0	; 63
    2eaa:	cd bf       	out	0x3d, r28	; 61
	/**********/
	while(TRUE){
		lcd0.reboot();
    2eac:	a1 96       	adiw	r28, 0x21	; 33
    2eae:	ee ad       	ldd	r30, Y+62	; 0x3e
    2eb0:	ff ad       	ldd	r31, Y+63	; 0x3f
    2eb2:	a1 97       	sbiw	r28, 0x21	; 33
    2eb4:	09 95       	icall
		//lcd1.reboot();
		//TODO:: Please write your application code
		keypadinput=keypad.get();
    2eb6:	cf 55       	subi	r28, 0x5F	; 95
    2eb8:	df 4f       	sbci	r29, 0xFF	; 255
    2eba:	e8 81       	ld	r30, Y
    2ebc:	f9 81       	ldd	r31, Y+1	; 0x01
    2ebe:	c1 5a       	subi	r28, 0xA1	; 161
    2ec0:	d0 40       	sbci	r29, 0x00	; 0
    2ec2:	09 95       	icall
    2ec4:	18 2f       	mov	r17, r24
		if(keypadinput.character){
    2ec6:	88 23       	and	r24, r24
    2ec8:	d9 f0       	breq	.+54     	; 0x2f00 <main+0x236>
			lcd0.gotoxy(0,0);
    2eca:	60 e0       	ldi	r22, 0x00	; 0
    2ecc:	70 e0       	ldi	r23, 0x00	; 0
    2ece:	80 e0       	ldi	r24, 0x00	; 0
    2ed0:	90 e0       	ldi	r25, 0x00	; 0
    2ed2:	f4 01       	movw	r30, r8
    2ed4:	09 95       	icall
			lcd0.putch(keypadinput.character);
    2ed6:	63 96       	adiw	r28, 0x13	; 19
    2ed8:	ee ad       	ldd	r30, Y+62	; 0x3e
    2eda:	ff ad       	ldd	r31, Y+63	; 0x3f
    2edc:	63 97       	sbiw	r28, 0x13	; 19
    2ede:	81 2f       	mov	r24, r17
    2ee0:	09 95       	icall
		}
		if(keypadinput.character == 'A'){
    2ee2:	11 34       	cpi	r17, 0x41	; 65
    2ee4:	31 f4       	brne	.+12     	; 0x2ef2 <main+0x228>
			relogio.second_count_reset();
    2ee6:	e0 91 9d 02 	lds	r30, 0x029D	; 0x80029d <relogio+0xa>
    2eea:	f0 91 9e 02 	lds	r31, 0x029E	; 0x80029e <relogio+0xb>
    2eee:	09 95       	icall
    2ef0:	07 c0       	rjmp	.+14     	; 0x2f00 <main+0x236>
		}
		if(keypadinput.character == 'B'){
    2ef2:	12 34       	cpi	r17, 0x42	; 66
    2ef4:	29 f4       	brne	.+10     	; 0x2f00 <main+0x236>
			relogio.second_count_stop();
    2ef6:	e0 91 9f 02 	lds	r30, 0x029F	; 0x80029f <relogio+0xc>
    2efa:	f0 91 a0 02 	lds	r31, 0x02A0	; 0x8002a0 <relogio+0xd>
    2efe:	09 95       	icall
		}
		//lcd0.string(function.resizestr(tmp,3));
		lcd0.gotoxy(0,4);
    2f00:	64 e0       	ldi	r22, 0x04	; 4
    2f02:	70 e0       	ldi	r23, 0x00	; 0
    2f04:	80 e0       	ldi	r24, 0x00	; 0
    2f06:	90 e0       	ldi	r25, 0x00	; 0
    2f08:	f4 01       	movw	r30, r8
    2f0a:	09 95       	icall
		function.ui16toa(PORTC,tmp);
    2f0c:	85 b3       	in	r24, 0x15	; 21
    2f0e:	be 01       	movw	r22, r28
    2f10:	6b 55       	subi	r22, 0x5B	; 91
    2f12:	7f 4f       	sbci	r23, 0xFF	; 255
    2f14:	90 e0       	ldi	r25, 0x00	; 0
    2f16:	f2 01       	movw	r30, r4
    2f18:	09 95       	icall
		//lcd0.string(function.resizestr(tmp,3));
		lcd0.string(relogio.show());
    2f1a:	e0 91 a5 02 	lds	r30, 0x02A5	; 0x8002a5 <relogio+0x12>
    2f1e:	f0 91 a6 02 	lds	r31, 0x02A6	; 0x8002a6 <relogio+0x13>
    2f22:	09 95       	icall
    2f24:	f3 01       	movw	r30, r6
    2f26:	09 95       	icall
		//lcd1.gotoxy(0,0);
		//lcd1.string("Ola Sergio");
		lcd0.gotoxy(0,13);
    2f28:	6d e0       	ldi	r22, 0x0D	; 13
    2f2a:	70 e0       	ldi	r23, 0x00	; 0
    2f2c:	80 e0       	ldi	r24, 0x00	; 0
    2f2e:	90 e0       	ldi	r25, 0x00	; 0
    2f30:	f4 01       	movw	r30, r8
    2f32:	09 95       	icall
		a=function.trimmer(analog.read(0),0,1023,0,255);
    2f34:	80 e0       	ldi	r24, 0x00	; 0
    2f36:	90 e0       	ldi	r25, 0x00	; 0
    2f38:	f1 01       	movw	r30, r2
    2f3a:	09 95       	icall
    2f3c:	bc 01       	movw	r22, r24
    2f3e:	99 0f       	add	r25, r25
    2f40:	88 0b       	sbc	r24, r24
    2f42:	99 0b       	sbc	r25, r25
    2f44:	1f 92       	push	r1
    2f46:	1f 92       	push	r1
    2f48:	1f 92       	push	r1
    2f4a:	ff ef       	ldi	r31, 0xFF	; 255
    2f4c:	ff 93       	push	r31
    2f4e:	a1 2c       	mov	r10, r1
    2f50:	b1 2c       	mov	r11, r1
    2f52:	65 01       	movw	r12, r10
    2f54:	ee 24       	eor	r14, r14
    2f56:	ea 94       	dec	r14
    2f58:	13 e0       	ldi	r17, 0x03	; 3
    2f5a:	f1 2e       	mov	r15, r17
    2f5c:	00 e0       	ldi	r16, 0x00	; 0
    2f5e:	10 e0       	ldi	r17, 0x00	; 0
    2f60:	20 e0       	ldi	r18, 0x00	; 0
    2f62:	30 e0       	ldi	r19, 0x00	; 0
    2f64:	a9 01       	movw	r20, r18
    2f66:	c5 53       	subi	r28, 0x35	; 53
    2f68:	df 4f       	sbci	r29, 0xFF	; 255
    2f6a:	e8 81       	ld	r30, Y
    2f6c:	f9 81       	ldd	r31, Y+1	; 0x01
    2f6e:	cb 5c       	subi	r28, 0xCB	; 203
    2f70:	d0 40       	sbci	r29, 0x00	; 0
    2f72:	09 95       	icall
    2f74:	70 93 a9 02 	sts	0x02A9, r23	; 0x8002a9 <a+0x1>
    2f78:	60 93 a8 02 	sts	0x02A8, r22	; 0x8002a8 <a>
		timer1.compareB(function.trimmer(analog.read(0),0,1023,450,2450));
    2f7c:	c9 56       	subi	r28, 0x69	; 105
    2f7e:	df 4f       	sbci	r29, 0xFF	; 255
    2f80:	28 81       	ld	r18, Y
    2f82:	39 81       	ldd	r19, Y+1	; 0x01
    2f84:	c7 59       	subi	r28, 0x97	; 151
    2f86:	d0 40       	sbci	r29, 0x00	; 0
    2f88:	c3 53       	subi	r28, 0x33	; 51
    2f8a:	df 4f       	sbci	r29, 0xFF	; 255
    2f8c:	39 83       	std	Y+1, r19	; 0x01
    2f8e:	28 83       	st	Y, r18
    2f90:	cd 5c       	subi	r28, 0xCD	; 205
    2f92:	d0 40       	sbci	r29, 0x00	; 0
    2f94:	80 e0       	ldi	r24, 0x00	; 0
    2f96:	90 e0       	ldi	r25, 0x00	; 0
    2f98:	f1 01       	movw	r30, r2
    2f9a:	09 95       	icall
    2f9c:	bc 01       	movw	r22, r24
    2f9e:	99 0f       	add	r25, r25
    2fa0:	88 0b       	sbc	r24, r24
    2fa2:	99 0b       	sbc	r25, r25
    2fa4:	1f 92       	push	r1
    2fa6:	1f 92       	push	r1
    2fa8:	f9 e0       	ldi	r31, 0x09	; 9
    2faa:	ff 93       	push	r31
    2fac:	22 e9       	ldi	r18, 0x92	; 146
    2fae:	2f 93       	push	r18
    2fb0:	0f 2e       	mov	r0, r31
    2fb2:	f2 ec       	ldi	r31, 0xC2	; 194
    2fb4:	af 2e       	mov	r10, r31
    2fb6:	bb 24       	eor	r11, r11
    2fb8:	b3 94       	inc	r11
    2fba:	c1 2c       	mov	r12, r1
    2fbc:	d1 2c       	mov	r13, r1
    2fbe:	f0 2d       	mov	r31, r0
    2fc0:	20 e0       	ldi	r18, 0x00	; 0
    2fc2:	30 e0       	ldi	r19, 0x00	; 0
    2fc4:	a9 01       	movw	r20, r18
    2fc6:	c5 53       	subi	r28, 0x35	; 53
    2fc8:	df 4f       	sbci	r29, 0xFF	; 255
    2fca:	e8 81       	ld	r30, Y
    2fcc:	f9 81       	ldd	r31, Y+1	; 0x01
    2fce:	cb 5c       	subi	r28, 0xCB	; 203
    2fd0:	d0 40       	sbci	r29, 0x00	; 0
    2fd2:	09 95       	icall
    2fd4:	cb 01       	movw	r24, r22
    2fd6:	c3 53       	subi	r28, 0x33	; 51
    2fd8:	df 4f       	sbci	r29, 0xFF	; 255
    2fda:	e8 81       	ld	r30, Y
    2fdc:	f9 81       	ldd	r31, Y+1	; 0x01
    2fde:	cd 5c       	subi	r28, 0xCD	; 205
    2fe0:	d0 40       	sbci	r29, 0x00	; 0
    2fe2:	09 95       	icall
		function.ui16toa(a,tmp);
    2fe4:	be 01       	movw	r22, r28
    2fe6:	6b 55       	subi	r22, 0x5B	; 91
    2fe8:	7f 4f       	sbci	r23, 0xFF	; 255
    2fea:	80 91 a8 02 	lds	r24, 0x02A8	; 0x8002a8 <a>
    2fee:	90 91 a9 02 	lds	r25, 0x02A9	; 0x8002a9 <a+0x1>
    2ff2:	f2 01       	movw	r30, r4
    2ff4:	09 95       	icall
		lcd0.string(function.resizestr(tmp,5));
    2ff6:	65 e0       	ldi	r22, 0x05	; 5
    2ff8:	70 e0       	ldi	r23, 0x00	; 0
    2ffa:	ce 01       	movw	r24, r28
    2ffc:	8b 55       	subi	r24, 0x5B	; 91
    2ffe:	9f 4f       	sbci	r25, 0xFF	; 255
    3000:	c7 53       	subi	r28, 0x37	; 55
    3002:	df 4f       	sbci	r29, 0xFF	; 255
    3004:	e8 81       	ld	r30, Y
    3006:	f9 81       	ldd	r31, Y+1	; 0x01
    3008:	c9 5c       	subi	r28, 0xC9	; 201
    300a:	d0 40       	sbci	r29, 0x00	; 0
    300c:	09 95       	icall
    300e:	f3 01       	movw	r30, r6
    3010:	09 95       	icall
		lcd0.gotoxy(1,12);
    3012:	6c e0       	ldi	r22, 0x0C	; 12
    3014:	70 e0       	ldi	r23, 0x00	; 0
    3016:	81 e0       	ldi	r24, 0x01	; 1
    3018:	90 e0       	ldi	r25, 0x00	; 0
    301a:	f4 01       	movw	r30, r8
    301c:	09 95       	icall
		function.ui16toa(analog.read(2),tmp);
    301e:	82 e0       	ldi	r24, 0x02	; 2
    3020:	90 e0       	ldi	r25, 0x00	; 0
    3022:	f1 01       	movw	r30, r2
    3024:	09 95       	icall
    3026:	be 01       	movw	r22, r28
    3028:	6b 55       	subi	r22, 0x5B	; 91
    302a:	7f 4f       	sbci	r23, 0xFF	; 255
    302c:	f2 01       	movw	r30, r4
    302e:	09 95       	icall
		lcd0.string(function.resizestr(tmp,4));
    3030:	64 e0       	ldi	r22, 0x04	; 4
    3032:	70 e0       	ldi	r23, 0x00	; 0
    3034:	ce 01       	movw	r24, r28
    3036:	8b 55       	subi	r24, 0x5B	; 91
    3038:	9f 4f       	sbci	r25, 0xFF	; 255
    303a:	c7 53       	subi	r28, 0x37	; 55
    303c:	df 4f       	sbci	r29, 0xFF	; 255
    303e:	e8 81       	ld	r30, Y
    3040:	f9 81       	ldd	r31, Y+1	; 0x01
    3042:	c9 5c       	subi	r28, 0xC9	; 201
    3044:	d0 40       	sbci	r29, 0x00	; 0
    3046:	09 95       	icall
    3048:	f3 01       	movw	r30, r6
    304a:	09 95       	icall
		//spi.fast_shift(10);
		/***/
		lcd0.gotoxy(1,0);
    304c:	60 e0       	ldi	r22, 0x00	; 0
    304e:	70 e0       	ldi	r23, 0x00	; 0
    3050:	81 e0       	ldi	r24, 0x01	; 1
    3052:	90 e0       	ldi	r25, 0x00	; 0
    3054:	f4 01       	movw	r30, r8
    3056:	09 95       	icall
		//lcd0.string(function.resizestr(uart.read(),12));
		if(relogio.second_count(210)==1)
    3058:	e0 91 9b 02 	lds	r30, 0x029B	; 0x80029b <relogio+0x8>
    305c:	f0 91 9c 02 	lds	r31, 0x029C	; 0x80029c <relogio+0x9>
    3060:	82 ed       	ldi	r24, 0xD2	; 210
    3062:	90 e0       	ldi	r25, 0x00	; 0
    3064:	09 95       	icall
    3066:	0f b6       	in	r0, 0x3f	; 63
    3068:	f8 94       	cli
    306a:	de bf       	out	0x3e, r29	; 62
    306c:	0f be       	out	0x3f, r0	; 63
    306e:	cd bf       	out	0x3d, r28	; 61
    3070:	81 30       	cpi	r24, 0x01	; 1
    3072:	29 f4       	brne	.+10     	; 0x307e <main+0x3b4>
			lcd0.string("3.5 minute");
    3074:	82 e3       	ldi	r24, 0x32	; 50
    3076:	91 e0       	ldi	r25, 0x01	; 1
    3078:	f3 01       	movw	r30, r6
    307a:	09 95       	icall
    307c:	10 c0       	rjmp	.+32     	; 0x309e <main+0x3d4>
		else
			lcd0.string(function.resizestr(uart.read(),12));
    307e:	ab 96       	adiw	r28, 0x2b	; 43
    3080:	ee ad       	ldd	r30, Y+62	; 0x3e
    3082:	ff ad       	ldd	r31, Y+63	; 0x3f
    3084:	ab 97       	sbiw	r28, 0x2b	; 43
    3086:	09 95       	icall
    3088:	6c e0       	ldi	r22, 0x0C	; 12
    308a:	70 e0       	ldi	r23, 0x00	; 0
    308c:	c7 53       	subi	r28, 0x37	; 55
    308e:	df 4f       	sbci	r29, 0xFF	; 255
    3090:	e8 81       	ld	r30, Y
    3092:	f9 81       	ldd	r31, Y+1	; 0x01
    3094:	c9 5c       	subi	r28, 0xC9	; 201
    3096:	d0 40       	sbci	r29, 0x00	; 0
    3098:	09 95       	icall
    309a:	f3 01       	movw	r30, r6
    309c:	09 95       	icall
		//eeprom.read_block((char*)tmp, (uint8_t*)NonVolatileString, 16);
		//lcd0.string(function.resizestr(tmp,12));
		/***/
		i2c.start(TWI_MASTER_MODE);
    309e:	e7 96       	adiw	r28, 0x37	; 55
    30a0:	ee ad       	ldd	r30, Y+62	; 0x3e
    30a2:	ff ad       	ldd	r31, Y+63	; 0x3f
    30a4:	e7 97       	sbiw	r28, 0x37	; 55
    30a6:	80 e0       	ldi	r24, 0x00	; 0
    30a8:	09 95       	icall
		i2c.master_connect(10,TWI_WRITE);
    30aa:	e9 96       	adiw	r28, 0x39	; 57
    30ac:	ee ad       	ldd	r30, Y+62	; 0x3e
    30ae:	ff ad       	ldd	r31, Y+63	; 0x3f
    30b0:	e9 97       	sbiw	r28, 0x39	; 57
    30b2:	60 e0       	ldi	r22, 0x00	; 0
    30b4:	8a e0       	ldi	r24, 0x0A	; 10
    30b6:	09 95       	icall
		i2c.master_write('h');
    30b8:	eb 96       	adiw	r28, 0x3b	; 59
    30ba:	ee ad       	ldd	r30, Y+62	; 0x3e
    30bc:	ff ad       	ldd	r31, Y+63	; 0x3f
    30be:	eb 97       	sbiw	r28, 0x3b	; 59
    30c0:	88 e6       	ldi	r24, 0x68	; 104
    30c2:	09 95       	icall
		i2c.stop();
    30c4:	ef 96       	adiw	r28, 0x3f	; 63
    30c6:	ee ad       	ldd	r30, Y+62	; 0x3e
    30c8:	ff ad       	ldd	r31, Y+63	; 0x3f
    30ca:	ef 97       	sbiw	r28, 0x3f	; 63
    30cc:	09 95       	icall
	}
    30ce:	ee ce       	rjmp	.-548    	; 0x2eac <main+0x1e2>

000030d0 <__vector_29>:
}
/*
** interrupt
*/
ISR(TIMER3_OVF_vect)
{
    30d0:	1f 92       	push	r1
    30d2:	0f 92       	push	r0
    30d4:	0f b6       	in	r0, 0x3f	; 63
    30d6:	0f 92       	push	r0
    30d8:	11 24       	eor	r1, r1
    30da:	0b b6       	in	r0, 0x3b	; 59
    30dc:	0f 92       	push	r0
    30de:	2f 93       	push	r18
    30e0:	3f 93       	push	r19
    30e2:	4f 93       	push	r20
    30e4:	5f 93       	push	r21
    30e6:	6f 93       	push	r22
    30e8:	7f 93       	push	r23
    30ea:	8f 93       	push	r24
    30ec:	9f 93       	push	r25
    30ee:	af 93       	push	r26
    30f0:	bf 93       	push	r27
    30f2:	ef 93       	push	r30
    30f4:	ff 93       	push	r31
	PORTC=memoria_1[count];
    30f6:	e0 91 a7 02 	lds	r30, 0x02A7	; 0x8002a7 <count>
    30fa:	f0 e0       	ldi	r31, 0x00	; 0
    30fc:	e0 5f       	subi	r30, 0xF0	; 240
    30fe:	fe 4f       	sbci	r31, 0xFE	; 254
    3100:	80 81       	ld	r24, Z
    3102:	85 bb       	out	0x15, r24	; 21
	TIMER0_COMPARE_MATCH++;
    3104:	80 91 91 02 	lds	r24, 0x0291	; 0x800291 <TIMER0_COMPARE_MATCH>
    3108:	90 91 92 02 	lds	r25, 0x0292	; 0x800292 <TIMER0_COMPARE_MATCH+0x1>
    310c:	01 96       	adiw	r24, 0x01	; 1
    310e:	90 93 92 02 	sts	0x0292, r25	; 0x800292 <TIMER0_COMPARE_MATCH+0x1>
    3112:	80 93 91 02 	sts	0x0291, r24	; 0x800291 <TIMER0_COMPARE_MATCH>
	if(TIMER0_COMPARE_MATCH > a){
    3116:	20 91 a8 02 	lds	r18, 0x02A8	; 0x8002a8 <a>
    311a:	30 91 a9 02 	lds	r19, 0x02A9	; 0x8002a9 <a+0x1>
    311e:	28 17       	cp	r18, r24
    3120:	39 07       	cpc	r19, r25
    3122:	70 f4       	brcc	.+28     	; 0x3140 <__vector_29+0x70>
		TIMER0_COMPARE_MATCH=0;
    3124:	10 92 92 02 	sts	0x0292, r1	; 0x800292 <TIMER0_COMPARE_MATCH+0x1>
    3128:	10 92 91 02 	sts	0x0291, r1	; 0x800291 <TIMER0_COMPARE_MATCH>
		count++;
    312c:	80 91 a7 02 	lds	r24, 0x02A7	; 0x8002a7 <count>
    3130:	8f 5f       	subi	r24, 0xFF	; 255
    3132:	80 93 a7 02 	sts	0x02A7, r24	; 0x8002a7 <count>
		relogio.increment();
    3136:	e0 91 95 02 	lds	r30, 0x0295	; 0x800295 <relogio+0x2>
    313a:	f0 91 96 02 	lds	r31, 0x0296	; 0x800296 <relogio+0x3>
    313e:	09 95       	icall
	}
	if(count == vector_size)
    3140:	80 91 a7 02 	lds	r24, 0x02A7	; 0x8002a7 <count>
    3144:	80 31       	cpi	r24, 0x10	; 16
    3146:	11 f4       	brne	.+4      	; 0x314c <__vector_29+0x7c>
		count=0;
    3148:	10 92 a7 02 	sts	0x02A7, r1	; 0x8002a7 <count>
}
    314c:	ff 91       	pop	r31
    314e:	ef 91       	pop	r30
    3150:	bf 91       	pop	r27
    3152:	af 91       	pop	r26
    3154:	9f 91       	pop	r25
    3156:	8f 91       	pop	r24
    3158:	7f 91       	pop	r23
    315a:	6f 91       	pop	r22
    315c:	5f 91       	pop	r21
    315e:	4f 91       	pop	r20
    3160:	3f 91       	pop	r19
    3162:	2f 91       	pop	r18
    3164:	0f 90       	pop	r0
    3166:	0b be       	out	0x3b, r0	; 59
    3168:	0f 90       	pop	r0
    316a:	0f be       	out	0x3f, r0	; 63
    316c:	0f 90       	pop	r0
    316e:	1f 90       	pop	r1
    3170:	18 95       	reti

00003172 <__vector_7>:
ISR(INT6_vect)
{
    3172:	1f 92       	push	r1
    3174:	0f 92       	push	r0
    3176:	0f b6       	in	r0, 0x3f	; 63
    3178:	0f 92       	push	r0
    317a:	11 24       	eor	r1, r1
    317c:	0b b6       	in	r0, 0x3b	; 59
    317e:	0f 92       	push	r0
    3180:	2f 93       	push	r18
    3182:	3f 93       	push	r19
    3184:	4f 93       	push	r20
    3186:	5f 93       	push	r21
    3188:	6f 93       	push	r22
    318a:	7f 93       	push	r23
    318c:	8f 93       	push	r24
    318e:	9f 93       	push	r25
    3190:	af 93       	push	r26
    3192:	bf 93       	push	r27
    3194:	ef 93       	push	r30
    3196:	ff 93       	push	r31
	int6.set(6,3);
    3198:	e0 91 8b 02 	lds	r30, 0x028B	; 0x80028b <int6>
    319c:	f0 91 8c 02 	lds	r31, 0x028C	; 0x80028c <int6+0x1>
    31a0:	63 e0       	ldi	r22, 0x03	; 3
    31a2:	86 e0       	ldi	r24, 0x06	; 6
    31a4:	09 95       	icall
	PORTC=0XFF;
    31a6:	8f ef       	ldi	r24, 0xFF	; 255
    31a8:	85 bb       	out	0x15, r24	; 21
}
    31aa:	ff 91       	pop	r31
    31ac:	ef 91       	pop	r30
    31ae:	bf 91       	pop	r27
    31b0:	af 91       	pop	r26
    31b2:	9f 91       	pop	r25
    31b4:	8f 91       	pop	r24
    31b6:	7f 91       	pop	r23
    31b8:	6f 91       	pop	r22
    31ba:	5f 91       	pop	r21
    31bc:	4f 91       	pop	r20
    31be:	3f 91       	pop	r19
    31c0:	2f 91       	pop	r18
    31c2:	0f 90       	pop	r0
    31c4:	0b be       	out	0x3b, r0	; 59
    31c6:	0f 90       	pop	r0
    31c8:	0f be       	out	0x3f, r0	; 63
    31ca:	0f 90       	pop	r0
    31cc:	1f 90       	pop	r1
    31ce:	18 95       	reti

000031d0 <__mulsi3>:
    31d0:	db 01       	movw	r26, r22
    31d2:	8f 93       	push	r24
    31d4:	9f 93       	push	r25
    31d6:	88 d0       	rcall	.+272    	; 0x32e8 <__muluhisi3>
    31d8:	bf 91       	pop	r27
    31da:	af 91       	pop	r26
    31dc:	a2 9f       	mul	r26, r18
    31de:	80 0d       	add	r24, r0
    31e0:	91 1d       	adc	r25, r1
    31e2:	a3 9f       	mul	r26, r19
    31e4:	90 0d       	add	r25, r0
    31e6:	b2 9f       	mul	r27, r18
    31e8:	90 0d       	add	r25, r0
    31ea:	11 24       	eor	r1, r1
    31ec:	08 95       	ret

000031ee <__udivmodhi4>:
    31ee:	aa 1b       	sub	r26, r26
    31f0:	bb 1b       	sub	r27, r27
    31f2:	51 e1       	ldi	r21, 0x11	; 17
    31f4:	07 c0       	rjmp	.+14     	; 0x3204 <__udivmodhi4_ep>

000031f6 <__udivmodhi4_loop>:
    31f6:	aa 1f       	adc	r26, r26
    31f8:	bb 1f       	adc	r27, r27
    31fa:	a6 17       	cp	r26, r22
    31fc:	b7 07       	cpc	r27, r23
    31fe:	10 f0       	brcs	.+4      	; 0x3204 <__udivmodhi4_ep>
    3200:	a6 1b       	sub	r26, r22
    3202:	b7 0b       	sbc	r27, r23

00003204 <__udivmodhi4_ep>:
    3204:	88 1f       	adc	r24, r24
    3206:	99 1f       	adc	r25, r25
    3208:	5a 95       	dec	r21
    320a:	a9 f7       	brne	.-22     	; 0x31f6 <__udivmodhi4_loop>
    320c:	80 95       	com	r24
    320e:	90 95       	com	r25
    3210:	bc 01       	movw	r22, r24
    3212:	cd 01       	movw	r24, r26
    3214:	08 95       	ret

00003216 <__divmodhi4>:
    3216:	97 fb       	bst	r25, 7
    3218:	07 2e       	mov	r0, r23
    321a:	16 f4       	brtc	.+4      	; 0x3220 <__divmodhi4+0xa>
    321c:	00 94       	com	r0
    321e:	06 d0       	rcall	.+12     	; 0x322c <__divmodhi4_neg1>
    3220:	77 fd       	sbrc	r23, 7
    3222:	08 d0       	rcall	.+16     	; 0x3234 <__divmodhi4_neg2>
    3224:	e4 df       	rcall	.-56     	; 0x31ee <__udivmodhi4>
    3226:	07 fc       	sbrc	r0, 7
    3228:	05 d0       	rcall	.+10     	; 0x3234 <__divmodhi4_neg2>
    322a:	3e f4       	brtc	.+14     	; 0x323a <__divmodhi4_exit>

0000322c <__divmodhi4_neg1>:
    322c:	90 95       	com	r25
    322e:	81 95       	neg	r24
    3230:	9f 4f       	sbci	r25, 0xFF	; 255
    3232:	08 95       	ret

00003234 <__divmodhi4_neg2>:
    3234:	70 95       	com	r23
    3236:	61 95       	neg	r22
    3238:	7f 4f       	sbci	r23, 0xFF	; 255

0000323a <__divmodhi4_exit>:
    323a:	08 95       	ret

0000323c <__udivmodsi4>:
    323c:	a1 e2       	ldi	r26, 0x21	; 33
    323e:	1a 2e       	mov	r1, r26
    3240:	aa 1b       	sub	r26, r26
    3242:	bb 1b       	sub	r27, r27
    3244:	fd 01       	movw	r30, r26
    3246:	0d c0       	rjmp	.+26     	; 0x3262 <__udivmodsi4_ep>

00003248 <__udivmodsi4_loop>:
    3248:	aa 1f       	adc	r26, r26
    324a:	bb 1f       	adc	r27, r27
    324c:	ee 1f       	adc	r30, r30
    324e:	ff 1f       	adc	r31, r31
    3250:	a2 17       	cp	r26, r18
    3252:	b3 07       	cpc	r27, r19
    3254:	e4 07       	cpc	r30, r20
    3256:	f5 07       	cpc	r31, r21
    3258:	20 f0       	brcs	.+8      	; 0x3262 <__udivmodsi4_ep>
    325a:	a2 1b       	sub	r26, r18
    325c:	b3 0b       	sbc	r27, r19
    325e:	e4 0b       	sbc	r30, r20
    3260:	f5 0b       	sbc	r31, r21

00003262 <__udivmodsi4_ep>:
    3262:	66 1f       	adc	r22, r22
    3264:	77 1f       	adc	r23, r23
    3266:	88 1f       	adc	r24, r24
    3268:	99 1f       	adc	r25, r25
    326a:	1a 94       	dec	r1
    326c:	69 f7       	brne	.-38     	; 0x3248 <__udivmodsi4_loop>
    326e:	60 95       	com	r22
    3270:	70 95       	com	r23
    3272:	80 95       	com	r24
    3274:	90 95       	com	r25
    3276:	9b 01       	movw	r18, r22
    3278:	ac 01       	movw	r20, r24
    327a:	bd 01       	movw	r22, r26
    327c:	cf 01       	movw	r24, r30
    327e:	08 95       	ret

00003280 <__divmodsi4>:
    3280:	05 2e       	mov	r0, r21
    3282:	97 fb       	bst	r25, 7
    3284:	16 f4       	brtc	.+4      	; 0x328a <__divmodsi4+0xa>
    3286:	00 94       	com	r0
    3288:	0f d0       	rcall	.+30     	; 0x32a8 <__negsi2>
    328a:	57 fd       	sbrc	r21, 7
    328c:	05 d0       	rcall	.+10     	; 0x3298 <__divmodsi4_neg2>
    328e:	d6 df       	rcall	.-84     	; 0x323c <__udivmodsi4>
    3290:	07 fc       	sbrc	r0, 7
    3292:	02 d0       	rcall	.+4      	; 0x3298 <__divmodsi4_neg2>
    3294:	46 f4       	brtc	.+16     	; 0x32a6 <__divmodsi4_exit>
    3296:	08 c0       	rjmp	.+16     	; 0x32a8 <__negsi2>

00003298 <__divmodsi4_neg2>:
    3298:	50 95       	com	r21
    329a:	40 95       	com	r20
    329c:	30 95       	com	r19
    329e:	21 95       	neg	r18
    32a0:	3f 4f       	sbci	r19, 0xFF	; 255
    32a2:	4f 4f       	sbci	r20, 0xFF	; 255
    32a4:	5f 4f       	sbci	r21, 0xFF	; 255

000032a6 <__divmodsi4_exit>:
    32a6:	08 95       	ret

000032a8 <__negsi2>:
    32a8:	90 95       	com	r25
    32aa:	80 95       	com	r24
    32ac:	70 95       	com	r23
    32ae:	61 95       	neg	r22
    32b0:	7f 4f       	sbci	r23, 0xFF	; 255
    32b2:	8f 4f       	sbci	r24, 0xFF	; 255
    32b4:	9f 4f       	sbci	r25, 0xFF	; 255
    32b6:	08 95       	ret

000032b8 <__tablejump2__>:
    32b8:	ee 0f       	add	r30, r30
    32ba:	ff 1f       	adc	r31, r31
    32bc:	00 24       	eor	r0, r0
    32be:	00 1c       	adc	r0, r0
    32c0:	0b be       	out	0x3b, r0	; 59
    32c2:	07 90       	elpm	r0, Z+
    32c4:	f6 91       	elpm	r31, Z
    32c6:	e0 2d       	mov	r30, r0
    32c8:	09 94       	ijmp

000032ca <__umulhisi3>:
    32ca:	a2 9f       	mul	r26, r18
    32cc:	b0 01       	movw	r22, r0
    32ce:	b3 9f       	mul	r27, r19
    32d0:	c0 01       	movw	r24, r0
    32d2:	a3 9f       	mul	r26, r19
    32d4:	70 0d       	add	r23, r0
    32d6:	81 1d       	adc	r24, r1
    32d8:	11 24       	eor	r1, r1
    32da:	91 1d       	adc	r25, r1
    32dc:	b2 9f       	mul	r27, r18
    32de:	70 0d       	add	r23, r0
    32e0:	81 1d       	adc	r24, r1
    32e2:	11 24       	eor	r1, r1
    32e4:	91 1d       	adc	r25, r1
    32e6:	08 95       	ret

000032e8 <__muluhisi3>:
    32e8:	f0 df       	rcall	.-32     	; 0x32ca <__umulhisi3>
    32ea:	a5 9f       	mul	r26, r21
    32ec:	90 0d       	add	r25, r0
    32ee:	b4 9f       	mul	r27, r20
    32f0:	90 0d       	add	r25, r0
    32f2:	a4 9f       	mul	r26, r20
    32f4:	80 0d       	add	r24, r0
    32f6:	91 1d       	adc	r25, r1
    32f8:	11 24       	eor	r1, r1
    32fa:	08 95       	ret

000032fc <_exit>:
    32fc:	f8 94       	cli

000032fe <__stop_program>:
    32fe:	ff cf       	rjmp	.-2      	; 0x32fe <__stop_program>
